(dp0
L0L
S'Avondale Barrel Aged Brett Saison'
p1
sL1L
S'McFate Imperial Candy Bar Stout - Barrel Aged'
p2
sL2L
S'Sockeye Double Dagger IIPA (Fresh Hop)'
p3
sL3L
S'Good People El Gordo Imperial Stout'
p4
sL4L
S'Straight To Ale Laika Russian Imperial Stout'
p5
sL5L
S'Straight To Ale Laika Russian Imperial Stout - Bourbon Barrel Aged'
p6
sL6L
S'Fairhope (Take The) Causeway IPA'
p7
sL7L
S'Anchorage Anadromous Belgian Black Bier'
p8
sL8L
S'Core Toasted Coconut Ale'
p9
sL9L
S'Port Brewing Older Viscosity'
p10
sL10L
S'Crooked Stave Raspberry Origins'
p11
sL11L
S'1809 Berliner Style Weisse Zymatore - Gin & Pinot Noir Barrels'
p12
sL12L
S'Iron Hill Sasquatch'
p13
sL13L
S'Funky Buddha Maple Bacon Coffee Porter'
p14
sL14L
S'Sweetwater Dank Tank Johnny Hash'
p15
sL15L
S'Big Island Red Giant Ale'
p16
sL16L
S'Three Floyds Ronaldo (2016 Dark Lord Variant)'
p17
sL17L
S'Three Floyds BrooDoo'
p18
sL18L
S'Three Floyds Blakkr'
p19
sL19L
S'18th Street Bitches Bank - Cognac Barrel Aged'
p20
sL20L
S'Three Floyds French Vanilla Militia'
p21
sL21L
S'Three Floyds Quit Hitting Yourself'
p22
sL22L
S'Three Floyds Arctic Panzer Wolf'
p23
sL23L
S'18th Street Barrel Aged Hunter - Wheat Whiskey'
p24
sL24L
S'18th Street Bitches Bank'
p25
sL25L
S'Three Floyds Alpha Klaus'
p26
sL26L
S'Three Floyds Behemoth - Bourbon Barrel'
p27
sL27L
S'Three Floyds / The Bruery Rue DFloyd'
p28
sL28L
S'Three Floyds Rye Da Tiger'
p29
sL29L
S'Three Floyds Permanent Funeral'
p30
sL30L
S'Three Floyds Dark Lord Russian Imperial Stout (Aquavit Barrel Aged)'
p31
sL31L
S'Three Floyds Alpha King'
p32
sL32L
S'Three Floyds Bourbon Barrel Aged Dark Lord De Muerte'
p33
sL33L
S'Three Floyds Baller Stout'
p34
sL34L
S'Three Floyds Dark Lord Russian Imperial Stout (Cognac Coffee)'
p35
sL35L
S'Three Floyds Behemoth'
p36
sL36L
S'Three Floyds Zombie Dust'
p37
sL37L
S'Three Floyds Dreadnaught Imperial IPA'
p38
sL38L
S'Three Floyds Dark Lord Russian Imperial Stout'
p39
sL39L
S'Three Floyds Dark Lord Russian Imperial Stout (Bourbon Barrel Aged)'
p40
sL40L
S'Three Floyds Dark Lord Russian Imperial Stout (Bourbon Vanilla Bean)'
p41
sL41L
S'Grand Teton Wake Up Call Imperial Coffee Porter'
p42
sL42L
S'Woodland Empire Beast Moans'
p43
sL43L
S'Laughing Dog Hop Dog Harvest Pale Ale'
p44
sL44L
S'Sockeye Big Creek Trappist'
p45
sL45L
S'Barbarian Big Bad Funky Wolf'
p46
sL46L
S'Grand Teton Pursuit of Hoppiness'
p47
sL47L
S'Grand Teton Trout Hop Black IPA'
p48
sL48L
S'Selkirk Abbey Infidel'
p49
sL49L
S'Laughing Dog Anubis Imperial Coffee Porter'
p50
sL50L
S'Laughing Dog Sneaky Pete Imperial IPA'
p51
sL51L
S'Sockeye Dagger Falls IPA'
p52
sL52L
S'Grand Teton 5 OClock Shadow'
p53
sL53L
S'Woodland Empire Cozy Up Big Ol Milk Stout'
p54
sL54L
S'Laughing Dog Devil Dog Imperial IPA'
p55
sL55L
S'Sockeye Hopnoxious Imperial IPA'
p56
sL56L
S'Grand Teton Sheep Eater Scotch Ale'
p57
sL57L
S'Payette 12 Gauge Imperial Stout'
p58
sL58L
S'Grand Teton Brewers Series No. 2 - Brett Saison'
p59
sL59L
S'Laughing Dog The Dogfather Imperial Stout - Bourbon Barrel'
p60
sL60L
S'Payette 12 Gauge Imperial Stout - Barrel Aged'
p61
sL61L
S'Big Horn Tres Amigos Tequila Aged Imperial IPA'
p62
sL62L
S'Grand Teton Black Cauldron Imperial Stout'
p63
sL63L
S'Grand Teton Double Vision Doppelbock'
p64
sL64L
S'Sockeye Barrel Aged Seven Devils Imperial Stout'
p65
sL65L
S'Maui Brewing Aloha Baktun'
p66
sL66L
S'Maui Brewing Cascadian Dark Belgian Rye IPA'
p67
sL67L
S'Maui Brewing Hop Kine'
p68
sL68L
S'Honolulu Beerworks South Shore Stout'
p69
sL69L
S'Kona Bourbon Barrel Aged Black Sand Porter'
p70
sL70L
S'Maui Brewing KGB Woody'
p71
sL71L
S'Kauai Island Captain Cooks IPA'
p72
sL72L
S'Big Island / Caldera Red Sea Imperial Red Gose'
p73
sL73L
S'Kona Black Sand Porter'
p74
sL74L
S'Big Island Golden Sabbath'
p75
sL75L
S'Maui Brewing Heaven & Hell Barleywine'
p76
sL76L
S'Big Island White Mountain Porter'
p77
sL77L
S'Maui Brewing Lorenzini Double IPA (6th Sense)'
p78
sL78L
S'Big Island Holy Humulus'
p79
sL79L
S'Kona Pipeline Porter'
p80
sL80L
S'Maui Brewing Freight Trains IPA'
p81
sL81L
S'Maui Brewing Shipwreck Stout'
p82
sL82L
S'Maui Brewing Big Swell IPA'
p83
sL83L
S'Big Island Overboard IPA'
p84
sL84L
S'Maui Brewing Double Overhead IPA'
p85
sL85L
S'Wrecking Bar Choco Mountain Imperial Breakfast Stout'
p86
sL86L
S'Maui Brewing Coconut Hiwa Porter'
p87
sL87L
S'Kona Old Blowhole Barley Wine'
p88
sL88L
S'Maui Brewing Imperial CoCoNut PorTeR'
p89
sL89L
S'Kona Da Grind Buzz Kona Coffee Imperial Stout'
p90
sL90L
S'Terrapin Rye Squared'
p91
sL91L
S'Red Brick 20th Anniversary'
p92
sL92L
S'Wrecking Bar Jemmy American Stout'
p93
sL93L
S'Terrapin Side Project Hopzilla Double IPA'
p94
sL94L
S'Terrapin Tiramisu-Hoo'
p95
sL95L
S'Wrecking Bar Jemmy Dean Breakfast Stout'
p96
sL96L
S'5 Seasons North Plan B IPA'
p97
sL97L
S'Wrecking Bar Siberius Maximus Russian Imperial Stout'
p98
sL98L
S'Terrapin Big Hoppy Monster'
p99
sL99L
S'Sweetwater Dank Tank Some Strange'
p100
sL100L
S'Burnt Hickory Charred Walls of the Damned'
p101
sL101L
S'Terrapin French Toasted W-n-B Coffee Oatmeal Imperial Stout'
p102
sL102L
S'Creature Comforts Cosmik Debris'
p103
sL103L
S'Sweetwater Bourbon Barrel Aged Imperial Stout'
p104
sL104L
S'Creature Comforts See The Stars'
p105
sL105L
S'Terrapin Oaked Aged Rye Squared'
p106
sL106L
S'Terrapin Cinnamon Rolld Wake-n-Bake'
p107
sL107L
S'Terrapin Wake-n-Bake Coffee Oatmeal Imperial Stout'
p108
sL108L
S'5 Seasons North Quinte55ence'
p109
sL109L
S'Terrapin Substance Abuse Ale'
p110
sL110L
S'Terrapin Oaked Wake-n-Bake Coffee Oatmeal Imperial Stout'
p111
sL111L
S'Wrecking Bar Mexican Siberius Maximus Russian Imperial Stout'
p112
sL112L
S'Funky Buddha Last Snow Porter'
p113
sL113L
S'Cigar City Cognac Barrel-Aged Imperial Sweet Stout'
p114
sL114L
S'Cycle Wednesday - 2016'
p115
sL115L
S'Cigar City Marshal Zhukovs Imperial Stout - Bourbon Barrel'
p116
sL116L
S'Cigar City Marshal Zhukovs Penultimate Push'
p117
sL117L
S'Cigar City / Mikkeller Nielsbohrium'
p118
sL118L
S'Creature Comforts Tropiclia'
p119
sL119L
S'Cycle Pallet 2'
p120
sL120L
S'Cycle &+'
p121
sL121L
S'Cigar City Marshal Zhukovs Imperial Stout'
p122
sL122L
S'Cycle RareR DOS'
p123
sL123L
S'Cigar City Caff Americano Double Stout'
p124
sL124L
S'J. Wakefield Miami Madness'
p125
sL125L
S'Cycle Nooner #9'
p126
sL126L
S'Funky Buddha Wide Awake Its Morning'
p127
sL127L
S'Funky Buddha Morning Wood'
p128
sL128L
S'Cycle Nooner #8'
p129
sL129L
S'Funky Buddha Last Buffalo in the Park'
p130
sL130L
S'J. Wakefield Dragonfruit Passion Fruit (DFPF) Berliner Weisse'
p131
sL131L
S'Funky Buddha Snowed In - Bourbon Barrel'
p132
sL132L
S'Cycle Four Roses BA Rye Stout'
p133
sL133L
S'Cycle Barrel-Aged Hazelnut Imperial Stout'
p134
sL134L
S'Cycle / 3 Sons Rare Scooop'
p135
sL135L
S'Cigar City Hunahpus Imperial Stout'
p136
sL136L
S'Cigar City Hunahpus Imperial Stout - Double Barrel Aged'
p137
sL137L
S'Dominion Millennium'
p138
sL138L
S'Dogfish Head Beer for Breakfast'
p139
sL139L
S'Iron Hill Bourbon Porter'
p140
sL140L
S'Iron Hill Imperial IPA'
p141
sL141L
S'Dogfish Head URKontinent'
p142
sL142L
S'Dogfish Head Indian Brown Ale'
p143
sL143L
S'Iron Hill Quadrupel (Quadfather)'
p144
sL144L
S'Dogfish Head Olde School Barleywine'
p145
sL145L
S'Dogfish Head 60 Minute IPA'
p146
sL146L
S'Iron Hill Bourbon (Tom) Barleywine'
p147
sL147L
S'Dogfish Head Raison D Extra'
p148
sL148L
S'Dogfish Head Immort Ale'
p149
sL149L
S'Dogfish Head 75 Minute IPA (Cask/Bottle)'
p150
sL150L
S'Dogfish Head Burton Baton'
p151
sL151L
S'Dogfish Head Squall IPA'
p152
sL152L
S'Dogfish Head 120 Minute IPA'
p153
sL153L
S'New England Locust Reign'
p154
sL154L
S'Iron Hill Oak Aged Quad'
p155
sL155L
S'Dominion Millennium Oak Aged'
p156
sL156L
S'Dogfish Head Palo Santo Marron'
p157
sL157L
S'Iron Hill Russian Imperial Stout'
p158
sL158L
S'Dogfish Head Bitches Brew'
p159
sL159L
S'Iron Hill Oak Aged Old Tom'
p160
sL160L
S'Dogfish Head 90 Minute Imperial IPA'
p161
sL161L
S'Dogfish Head World Wide Stout 2001/2003-Present (18%)'
p162
sL162L
S'OEC Aeris Singularis (Pinot Noir/Gin Barrel)'
p163
sL163L
S'OEC Experimentalis with Peaches (Pedro Ximenez Barrel)'
p164
sL164L
S'OEC Exilis'
p165
sL165L
S'OEC Aeris'
p166
sL166L
S'Two Roads Unorthodox'
p167
sL167L
S'Thomas Hooker Imperial Porter'
p168
sL168L
S'Willimantic Address Unknown IPA'
p169
sL169L
S'OEC Nepenthes'
p170
sL170L
S'New England Imperial Stout Trooper (Bourbon)'
p171
sL171L
S'OEC Artista Zynergia: Gosatequin (Blend #1)'
p172
sL172L
S'Two Roads Igors Dream - Rye Whiskey Barrel Aged'
p173
sL173L
S'New England 668 Chardonneighbor Of The Beast'
p174
sL174L
S'OEC Albus'
p175
sL175L
S'New England Galaxy Pale Ale'
p176
sL176L
S'Thomas Hooker Liberator Doppelbock'
p177
sL177L
S'OEC Artista Zynergia: Oudilis'
p178
sL178L
S'Willimantic Willi Whammer'
p179
sL179L
S'New England G-Bot Double IPA'
p180
sL180L
S'OEC Experimentalis With Meyer Lemons (Pinot Noir/Gin Barrel)'
p181
sL181L
S'New England Supernaut IPA'
p182
sL182L
S'New England Imperial Stout Trooper'
p183
sL183L
S'New England Fuzzy Baby Ducks IPA'
p184
sL184L
S'New England Coriolis'
p185
sL185L
S'Casey Dry Hopped Oak Theory - Galaxy & Simcoe'
p186
sL186L
S'Crooked Stave Silly Cybies'
p187
sL187L
S'WeldWerks Coffee Maple Achromatic'
p188
sL188L
S'Great Divide Hercules Double IPA'
p189
sL189L
S'Avery The Maharaja Imperial India Pale Ale'
p190
sL190L
S'New Belgium Love - Felix-Oscar Blend - Blackberry Whiskey Barrel'
p191
sL191L
S'New Belgium La Folie'
p192
sL192L
S'Avery Mephistopheles Stout'
p193
sL193L
S'Casey Brett Loves Citra'
p194
sL194L
S'Medovina Sweet Melissa'
p195
sL195L
S'Great Divide Yeti Imperial Stout - Chocolate Oak Aged'
p196
sL196L
S'Avery Tweak'
p197
sL197L
S'Crooked Stave Petite Sour Hibiscus & Cinnamon (Apple/Peach Whiskey)'
p198
sL198L
S'Casey The Cut: Balaton Cherry'
p199
sL199L
S'Great Divide Yeti Imperial Stout - Barrel Aged'
p200
sL200L
S'Crooked Stave Nightmare on Brett (Raspberry)'
p201
sL201L
S'Oskar Blues Ten FIDY - Stranahans Colorado Whiskey Barrel'
p202
sL202L
S'Great Divide Yeti Imperial Stout'
p203
sL203L
S'Oskar Blues Ten FIDY - Barrel Aged'
p204
sL204L
S'Avery Barrel-Aged Series 36 - Callipygian'
p205
sL205L
S'Oskar Blues Ten FIDY'
p206
sL206L
S'Great Divide Yeti Imperial Stout - Espresso Oak Aged'
p207
sL207L
S'Avery Uncle Jacobs Stout'
p208
sL208L
S'Great Divide Yeti Imperial Stout - Oak Aged'
p209
sL209L
S'North Coast Old Rasputin (Bourbon Barrel)'
p210
sL210L
S'Lost Abbey The Angels Share - Bourbon Barrel'
p211
sL211L
S'Russian River Beatification (Batch 002 +)'
p212
sL212L
S'Russian River Consecration'
p213
sL213L
S'Lost Abbey Duck Duck Gooze'
p214
sL214L
S'AleSmith Speedway Stout - Vanilla & Coconut'
p215
sL215L
S'Lost Abbey Box Set: Track #10 (Bat out of Hell)'
p216
sL216L
S'Lost Abbey Box Set: Track #6 (Highway to Hell)'
p217
sL217L
S'Hangar 24 Barrel Roll: Pugachev Royale'
p218
sL218L
S'Stone Imperial Russian Stout'
p219
sL219L
S'Russian River Supplication'
p220
sL220L
S'Stone Imperial Russian Stout - Bourbon Barrel'
p221
sL221L
S'Vinos Octoberfest'
p222
sL222L
S'Fossil Cove La Brea Brown'
p223
sL223L
S'Firestone Walker Parabola'
p224
sL224L
S'Lost Abbey Cable Car'
p225
sL225L
S'AleSmith Speedway Stout - Vietnamese Coffee'
p226
sL226L
S'AleSmith Speedway Stout - Brewers Blend: Vietnamese Coffee'
p227
sL227L
S'Alpine Beer Company Keene Idea'
p228
sL228L
S'AleSmith Speedway Stout - Velvet'
p229
sL229L
S'AleSmith Speedway Stout - Hawaiian'
p230
sL230L
S'Russian River Pliny the Elder'
p231
sL231L
S'AleSmith Speedway Stout'
p232
sL232L
S'AleSmith Speedway Stout - Bourbon Barrel Aged'
p233
sL233L
S'Russian River Pliny the Younger'
p234
sL234L
S'AleSmith Speedway Stout - Bourbon Barrel Aged: Vietnamese Coffee'
p235
sL235L
S'Vinos Rainbow Wheat'
p236
sL236L
S'Diamond Bear Presidential IPA'
p237
sL237L
S'Core Hilltop IPA'
p238
sL238L
S'Diamond Bear Strawberry Blonde'
p239
sL239L
S'Core Easy Livin IPA'
p240
sL240L
S'Moody Brews Half Seas Over Imperial IPA'
p241
sL241L
S'Diamond Bear Dogtown Brown'
p242
sL242L
S'Diamond Bear Two Term Double IPA'
p243
sL243L
S'Vinos Lazyboy Stout'
p244
sL244L
S'Diamond Bear Paradise Porter'
p245
sL245L
S'Vinos Holidaze'
p246
sL246L
S'Vinos Pinnacle IPA'
p247
sL247L
S'Core Barneys Imperial Red'
p248
sL248L
S'Ozark Cream Stout'
p249
sL249L
S'Core ESB'
p250
sL250L
S'Lost Forty Pale Ale'
p251
sL251L
S'Vinos Imperial Stout'
p252
sL252L
S'Core Oatmeal Stout'
p253
sL253L
S'Ozark Onyx Coffee Stout'
p254
sL254L
S'Vinos Rock Hopera Imperial IPA'
p255
sL255L
S'Ozark American Pale Ale'
p256
sL256L
S'Ozark Bourbon Barrel Aged Double Cream Stout'
p257
sL257L
S'Thunder Canyon Warhead Stout'
p258
sL258L
S'Four Peaks Double Knot'
p259
sL259L
S'Superstition Marion Mead - Sparkling'
p260
sL260L
S'Superstition Fruit of Venus'
p261
sL261L
S'Superstition Date Night'
p262
sL262L
S'Superstition Aphrodisia Pyment - Syrah/Grenache'
p263
sL263L
S'Superstition Aphrodisia Pyment - Cabernet/Syrah'
p264
sL264L
S'Superstition Aphrodisia Pyment - Cabernet/Pinot Noir/Syrah'
p265
sL265L
S'Superstition Marion Mead - Still'
p266
sL266L
S'Superstition Super Bee'
p267
sL267L
S'Arizona Wilderness Picacho Pecan Pie Brown Ale'
p268
sL268L
S'Arizona Wilderness DC Mountain Double IPA'
p269
sL269L
S'Arizona Wilderness American Presidential Stout'
p270
sL270L
S'Sun Up White Russian Imperial Stout'
p271
sL271L
S'Superstition Peanut Butter Jelly Crime'
p272
sL272L
S'Superstition Grand Cru Berry'
p273
sL273L
S'Superstition Framboesa Atando'
p274
sL274L
S'Superstition Black Berry White'
p275
sL275L
S'Superstition Aphrodisia Pyment - Cabernet'
p276
sL276L
S'Dragoon Lazarus'
p277
sL277L
S'Superstition Straw Berry White'
p278
sL278L
S'Superstition Endovelicus'
p279
sL279L
S'Superstition Blue Berry White'
p280
sL280L
S'Superstition Berry White'
p281
sL281L
S'Anchorage Whiteout Wit Bier'
p282
sL282L
S'Anchorage The Experiment'
p283
sL283L
S'Midnight Sun XXX Black Double IPA'
p284
sL284L
S'Midnight Sun 2014 Alaskana Series: Termination Dust'
p285
sL285L
S'Midnight Sun 2009 Crew Brews: Brewtality'
p286
sL286L
S'Midnight Sun Monks Mistress (Bourbon)'
p287
sL287L
S'Anchorage Galaxy White IPA'
p288
sL288L
S'Anchorage / Jolly Pumpkin Calabaza Boreal'
p289
sL289L
S'Alaskan Pilot Series: Barley Wine Ale'
p290
sL290L
S'Midnight Sun T.R.E.A.T. Imperial Chocolate Pumpkin Porter'
p291
sL291L
S'Anchorage The Tide and Its Takers Triple'
p292
sL292L
S'Anchorage Mosaic Saison'
p293
sL293L
S'Alaskan Smoked Porter'
p294
sL294L
S'Midnight Sun Moscow'
p295
sL295L
S'Midnight Sun Monks Mistress'
p296
sL296L
S'Anchorage Love Buzz Saison'
p297
sL297L
S'Anchorage Darkest Hour Imperial Stout (2014-)'
p298
sL298L
S'Anchorage Bitter Monk Belgian Style Double IPA'
p299
sL299L
S'Midnight Sun Arctic Devil'
p300
sL300L
S'Anchorage Time Waits For No One'
p301
sL301L
S'Anchorage A Deal With The Devil Barleywine'
p302
sL302L
S'Midnight Sun 2010 Pop Ten: Barfly'
p303
sL303L
S'Midnight Sun Berserker'
p304
sL304L
S'Midnight Sun 2007 Deadly Sins: Sloth'
p305
sL305L
S'Straight To Ale He Aint Heffe'
p306
sL306L
S'Salty Nut Dahkness Stout'
p307
sL307L
S'Back Forty Trade Day Cuban Coffee Stout'
p308
sL308L
S'Straight To Ale Verns Wheat Wine'
p309
sL309L
S'Good People Hitchhiker American IPA'
p310
sL310L
S'Blue Pants Pinstripe Candy Bar Stout'
p311
sL311L
S'Avondale Vanillaphant Porter'
p312
sL312L
S'Fairhope Painted Black IPA'
p313
sL313L
S'Straight To Ale Monkeynaut IPA'
p314
sL314L
S'Blue Pants Weedys Double IPA'
p315
sL315L
S'Straight To Ale Illudium'
p316
sL316L
S'Good People Coffee Oatmeal Stout'
p317
sL317L
S'Beer Engineers Peanut Butter Porter'
p318
sL318L
S'Straight To Ale Monkeys Uncle IIPA'
p319
sL319L
S'Straight To Ale Unobtanium'
p320
sL320L
S'Good People Fatso Imperial Stout'
p321
sL321L
S'Straight To Ale Velvet Evil'
p322
sL322L
S'Straight To Ale Gorillanaut Imperial IPA'
p323
sL323L
S'Good People Snake Handler'
p324
sL324L
S'Straight To Ale Laika Russian Imperial Stout - Cabernet Barrel Aged'
p325
sL325L
S'SPB Lazarus'
p326
sL326L
S'Goose Island Bourbon County Stout'
p327
sL327L
S'Goose Island Bourbon County Stout - Rare 2015'
p328
sL328L
S'Goose Island Bourbon County Stout - Coffee'
p329
sL329L
S'Goose Island Bourbon County Barleywine'
p330
sL330L
S'Flossmoor Station Pretty Big IPA'
p331
sL331L
S'Peace Tree Hop Sutra'
p332
sL332L
S'Blind Tiger Top Gun IPA'
p333
sL333L
S'Bluegrass Bourbon Barrel Smoked Stout'
p334
sL334L
S'Parish Envie Pale Ale'
p335
sL335L
S'Maine Beer Zoe'
p336
sL336L
S'DuClaw Black Jack Stout'
p337
sL337L
S'Tree House Green'
p338
sL338L
S'Bells Two Hearted Ale'
p339
sL339L
S'Town Hall Ol Jack Frost'
p340
sL340L
S'Side Project Blanc de Blancs'
p341
sL341L
S'Big Sky Shake-a-Day Mai Tai IPA'
p342
sL342L
S'Lewis and Clark Tumbleweed IPA'
p343
sL343L
S'Yellowstone Valley Numbskull IPA'
p344
sL344L
S'Montana Brewing Custers Last Stout'
p345
sL345L
S'Big Sky Shake-A-Day India Pale Ale'
p346
sL346L
S'Big Hole Head Smashed In'
p347
sL347L
S'Bozeman Bozone Plum St. Porter'
p348
sL348L
S'Bozeman Bozone HopZone IPA'
p349
sL349L
S'Big Sky Biere de Noel'
p350
sL350L
S'Big Sky Rye Pale Ale'
p351
sL351L
S'Big Sky IPA'
p352
sL352L
S'Bitter Root Single Hop Ale - CTZ'
p353
sL353L
S'The Front Mountain Man Scotch Ale'
p354
sL354L
S'Draught Works Scepter Head IPA'
p355
sL355L
S'Carters Saison De Carter'
p356
sL356L
S'Big Sky Cowboy Coffee Porter'
p357
sL357L
S'Bitter Root Last Cast Black IPA'
p358
sL358L
S'Kettle House Olde Bongwater Hemp Porter'
p359
sL359L
S'Montana Brewing Beartooth Espresso Porter'
p360
sL360L
S'Flathead Lake The Imperial IPA'
p361
sL361L
S'Big Sky Bobos Robust Porter'
p362
sL362L
S'Carters De-Railed IPA'
p363
sL363L
S'Big Sky Olde Bluehair Barleywine'
p364
sL364L
S'Big Sky Ivan The Terrible Imperial Stout'
p365
sL365L
S'Big Sky Ivan the Terrible Imperial Stout - Bourbon Barrel'
p366
sL366L
S'Side Project / De Garde Orviamo'
p367
sL367L
S'Boulevard Smokestack Series: Saison-Brett'
p368
sL368L
S'Side Project Saison du Fermier'
p369
sL369L
S'Perennial Barrel Aged Sump (Rwandan Kyoto)'
p370
sL370L
S'Side Project Unblended (Barrel #40)'
p371
sL371L
S'Side Project Saison du Bl'
p372
sL372L
S'Perennial Vanilla Abraxas'
p373
sL373L
S'Perennial Maman'
p374
sL374L
S'Perennial Coffee Abraxas'
p375
sL375L
S'Side Project One Candle'
p376
sL376L
S'Perennial Barrel Aged Sump'
p377
sL377L
S'Mothers MILF'
p378
sL378L
S'Side Project Thicket'
p379
sL379L
S'Side Project Fuzzy'
p380
sL380L
S'Side Project Bleuet du Fermier'
p381
sL381L
S'Side Project Abricot du Fermier'
p382
sL382L
S'Perennial Sump'
p383
sL383L
S'Perennial Blue Label Maman - Evan Williams 23'
p384
sL384L
S'Side Project Framboise du Fermier'
p385
sL385L
S'Side Project Derivation Blend #3'
p386
sL386L
S'Perennial Abraxas'
p387
sL387L
S'Side Project Derivation Blend #2'
p388
sL388L
S'Side Project Derivation Blend #1'
p389
sL389L
S'Perennial Barrel Aged Abraxas'
p390
sL390L
S'Lazy Magnolia Me and the Dev-Ale'
p391
sL391L
S'SPB Cicada Series Suzy Smash'
p392
sL392L
S'SPB Devils Harvest American Pale Ale (Redux) (2016 - )'
p393
sL393L
S'SPB Cicada Series Hipster Breakfast'
p394
sL394L
S'SPB Sinister Minister'
p395
sL395L
S'SPB Jack the Sipper'
p396
sL396L
S'Chandeleur Curlews Toasted Coconut Porter'
p397
sL397L
S'SPB Devils Harvest Extra Pale Ale (-2016)'
p398
sL398L
S'Lazy Magnolia Jefferson Stout'
p399
sL399L
S'Chandeleur Lil Smack IPA'
p400
sL400L
S'SPB Mississippi Fire Ant'
p401
sL401L
S'Lazy Magnolia Gulf Porter'
p402
sL402L
S'SPB Cicada Series 2014 IPA'
p403
sL403L
S'Lazy Magnolia Black Creek Southern Style Imperial Stout'
p404
sL404L
S'Lazy Magnolia Ginger Jaque'
p405
sL405L
S'Lazy Magnolia Southern Hopspitality'
p406
sL406L
S'SPB Cicada Series 2015 IPA'
p407
sL407L
S'Lazy Magnolia 10'
p408
sL408L
S'Crooked Letter Mystery Romp'
p409
sL409L
S'SPB Mississippi Fire Ant: Bourbon Barrel Aged'
p410
sL410L
S'SPB Cicada Series Rgana Baltic Porter'
p411
sL411L
S'Lazy Magnolia Southern Gentleman'
p412
sL412L
S'Lazy Magnolia Timber Beast'
p413
sL413L
S'SPB Crowd Control'
p414
sL414L
S'Brau Brothers Rye Wyne Ale 2011'
p415
sL415L
S'Indeed D.I.D.D.C.W.Q.M.S'
p416
sL416L
S'Town Hall Twisted Trace'
p417
sL417L
S'Surly Blakkr'
p418
sL418L
S'Schell Noble Star - Starkeller Peach'
p419
sL419L
S'Town Hall Coconut Milk Stout'
p420
sL420L
S'Surly Wet 2012 & 2015'
p421
sL421L
S'Lift Bridge Silhouette Bourbon Barrel Aged Russian Imperial Stout'
p422
sL422L
S'Bent Paddle Double Shot Double Black'
p423
sL423L
S'Fitgers Edmund Imperial Stout (Bourbon Barrel)'
p424
sL424L
S'Town Hall Wee Heavy'
p425
sL425L
S'Dangerous Man Peanut Butter Porter'
p426
sL426L
S'Town Hall Masala Mama IPA'
p427
sL427L
S'Surly Furious'
p428
sL428L
S'Steel Toe Before the Dawn'
p429
sL429L
S'Surly / Amager Todd - The Axe Man (Surly Version)'
p430
sL430L
S'Surly Four'
p431
sL431L
S'Town Hall Russian Roulette'
p432
sL432L
S'Town Hall Czar Jack Imperial Stout'
p433
sL433L
S'Barley Johns Rosies Ale'
p434
sL434L
S'Surly Abrasive Ale'
p435
sL435L
S'Surly Darkness 2014 - Bottled'
p436
sL436L
S'Barley Johns The Dark Knight (Returns)'
p437
sL437L
S'Surly Darkness'
p438
sL438L
S'Bells Bourbon Barrel Batch 9000 Ale'
p439
sL439L
S'Bells Traverse City Whiskey Barrel-Aged Expedition Stout'
p440
sL440L
S'Schramms Raspberry'
p441
sL441L
S'Founders Imperial Stout'
p442
sL442L
S'The Livery Bourbon Barrel Aged Wheat Trippelbock'
p443
sL443L
S'Schramms Apple'
p444
sL444L
S'Perrin No Rules Vietnamese Porter'
p445
sL445L
S'Kuhnhenn Fourth Dementia (4D) Old Ale - Bourbon Barrel'
p446
sL446L
S'Founders Bourbon Barrel Imperial Stout'
p447
sL447L
S'Schramms The Statement'
p448
sL448L
S'Founders Breakfast Stout'
p449
sL449L
S'Bells Hopslam'
p450
sL450L
S'Kuhnhenn Bourbon Barrel French Toast Mead'
p451
sL451L
S'Dark Horse Bourbon Barrel Plead the 5th Imperial Stout'
p452
sL452L
S'Schramms The Statement - Reserve'
p453
sL453L
S'Schramms Black Agnes'
p454
sL454L
S'Schramms Cranberry'
p455
sL455L
S'Schramms Red Agnes'
p456
sL456L
S'Bells Bourbon Barrel-Aged Expedition Stout'
p457
sL457L
S'Bells Expedition Stout'
p458
sL458L
S'Founders KBS (Kentucky Breakfast Stout)'
p459
sL459L
S'Bells Black Note Stout'
p460
sL460L
S'Schramms The Heart of Darkness'
p461
sL461L
S'Schramms Madeline'
p462
sL462L
S'Trillium Congress Street IPA'
p463
sL463L
S'Trillium Mettle'
p464
sL464L
S'Tree House Double Shot'
p465
sL465L
S'Trillium Melcher Street IPA'
p466
sL466L
S'Trillium Summer Street IPA - Double Dry Hopped'
p467
sL467L
S'Trillium Headroom'
p468
sL468L
S'Tree House In Perpetuity'
p469
sL469L
S'Trillium Scaled - Double Dry Hopped'
p470
sL470L
S'Samuel Adams Utopias'
p471
sL471L
S'Trillium Fort Point Pale Ale'
p472
sL472L
S'Tree House Haze'
p473
sL473L
S'Trillium Fort Point Pale Ale - Galaxy Dry Hopped'
p474
sL474L
S'Trillium Congress Street IPA - Double Dry Hopped'
p475
sL475L
S'Trillium Fort Point Pale Ale - Double Dry Hopped'
p476
sL476L
S'Trillium Upper Case'
p477
sL477L
S'Tree House Juice Machine (2015- )'
p478
sL478L
S'Tree House Doppelganger'
p479
sL479L
S'Trillium Fort Point Pale Ale - Mosaic Dry Hopped'
p480
sL480L
S'Tree House Very Hazy'
p481
sL481L
S'Tree House Julius'
p482
sL482L
S'Trillium Melcher Street IPA - Double Dry Hopped'
p483
sL483L
S'Trillium Vicinity'
p484
sL484L
S'Tree House Alter Ego'
p485
sL485L
S'Tree House Good Morning'
p486
sL486L
S'Stillwater Beer Table - Table Beer'
p487
sL487L
S'Flying Dog Imperial IPA - Citra Single Hop'
p488
sL488L
S'Flying Dog Double Dog Double Pale Ale'
p489
sL489L
S'Stillwater Even Less Jesus (Remix)'
p490
sL490L
S'Flying Dog Brewhouse Rarities: Smoked Belgian Stout'
p491
sL491L
S'Stillwater Contemporary Works - Surround'
p492
sL492L
S'Flying Dog Barrel-Aged Horn Dog'
p493
sL493L
S'DuClaw Retribution'
p494
sL494L
S'Stillwater / Mikkeller Rauchstar'
p495
sL495L
S'Flying Dog Kujo'
p496
sL496L
S'DuClaw Repent'
p497
sL497L
S'Stillwater Import Series Vol. 5 Debauched - Brunello Barrel'
p498
sL498L
S'Stillwater Give-Way'
p499
sL499L
S'Heavy Seas Uncharted Waters: Siren Noire (2013 -)'
p500
sL500L
S'Stillwater Barrel Aged Series - Folklore, the tale of Van Winkle'
p501
sL501L
S'Stillwater Barrel Aged Series - Cellar Door'
p502
sL502L
S'Stillwater / Casita Cerveceria On Fleek'
p503
sL503L
S'Stillwater G13'
p504
sL504L
S'Stillwater Barrel Aged Series - Stateside Saison'
p505
sL505L
S'DuClaw Oak Aged Black Jack Stout'
p506
sL506L
S'Heavy Seas Uncharted Waters: Blackbeards Breakfast'
p507
sL507L
S'Flying Dog Wild Dog Barrel-Aged Gonzo'
p508
sL508L
S'Flying Dog Gonzo Imperial Porter'
p509
sL509L
S'Stillwater Gose Gone Wild'
p510
sL510L
S'Maine Beer King Titus'
p511
sL511L
S'Allagash St. Klippenstein'
p512
sL512L
S'Allagash Nancy'
p513
sL513L
S'Allagash Coolship Cerise'
p514
sL514L
S'Maine Beer Weez'
p515
sL515L
S'Maine Beer II'
p516
sL516L
S'Allagash Tripel Reserve'
p517
sL517L
S'Allagash Interlude'
p518
sL518L
S'Allagash Tiarna'
p519
sL519L
S'Allagash Golden Brett'
p520
sL520L
S'Allagash Farm to Face'
p521
sL521L
S'Allagash Merveilleux'
p522
sL522L
S'Allagash Coolship Red'
p523
sL523L
S'Oxbow / Stillwater Stillbow Oxtisanal'
p524
sL524L
S'Allagash Century Ale'
p525
sL525L
S'Allagash Avanc'
p526
sL526L
S'Maine Beer MO'
p527
sL527L
S'Maine Beer I'
p528
sL528L
S'Foundation Epiphany IPA'
p529
sL529L
S'NOLA / 7venth Sun House of the Rising'
p530
sL530L
S'NOLA Girl Stout Cookie'
p531
sL531L
S'Bissell Brothers Swish'
p532
sL532L
S'Maine Beer Lunch'
p533
sL533L
S'Maine Beer Another One'
p534
sL534L
S'Allagash Cuve dIndustrial'
p535
sL535L
S'Maine Beer Dinner'
p536
sL536L
S'Abita Select Imperator'
p537
sL537L
S'Abita Wrought Iron IPA'
p538
sL538L
S'Bayou Teche Saison dEcrevisse (-2015)'
p539
sL539L
S'Great Raft All My Tomorrows'
p540
sL540L
S'Parish Dr Hoptagon'
p541
sL541L
S'Bayou Teche Biere Joi Barrel Aged'
p542
sL542L
S'Great Raft Reasonably Corrupt Schwarzbier'
p543
sL543L
S'Abita Bourbon Street Baltic Porter'
p544
sL544L
S'Parish Grand Reserve'
p545
sL545L
S'Abita Bourbon Street Coffee Stout'
p546
sL546L
S'Parish Opus Vert'
p547
sL547L
S'NOLA Irish Channel Stout'
p548
sL548L
S'NOLA Sauvage'
p549
sL549L
S'Chafunkta Old 504 Porter'
p550
sL550L
S'Bayou Teche Loup Garou'
p551
sL551L
S'Abita Macchiato Espresso Milk Stout'
p552
sL552L
S'Abita Bourbon Street Barrel Aged Imperial Stout'
p553
sL553L
S'Parish Farmhouse IPA'
p554
sL554L
S'Abita Shotgun Double IPA'
p555
sL555L
S'NOLA Piety'
p556
sL556L
S'NOLA Lowerline'
p557
sL557L
S'Parish Ghost In The Machine'
p558
sL558L
S'Country Boy Papaws Red Ale'
p559
sL559L
S'West Sixth IPA'
p560
sL560L
S'Against the Grain Tropical Segway Kitten'
p561
sL561L
S'Bluegrass Russian Imperial Porter'
p562
sL562L
S'Braxton Dead Blow - Starter Coffee'
p563
sL563L
S'Bluegrass Bearded Pats Barleywine Style Ale'
p564
sL564L
S'West Sixth Snakes In A Barrel'
p565
sL565L
S'Against the Grain Gnight Ryder'
p566
sL566L
S'Against the Grain Rico Sauvin'
p567
sL567L
S'Against the Grain The Green Dragon'
p568
sL568L
S'Against the Grain Citra Ass Down'
p569
sL569L
S'Against the Grain 35K Stout'
p570
sL570L
S'Country Boy 4th Anniversary Wild Red Ale'
p571
sL571L
S'West Sixth Snake Eyes Imperial Stout'
p572
sL572L
S'Against the Grain / Dry & Bitter Your Lytest One'
p573
sL573L
S'Bluegrass Cherry Inyouendo'
p574
sL574L
S'Bluegrass Bourbon Barrel Russian Imperial Porter'
p575
sL575L
S'Country Boy Infinite Sadness'
p576
sL576L
S'Against the Grain London Balling'
p577
sL577L
S'Against the Grain Brett The Hipman Hop'
p578
sL578L
S'Against the Grain / To l An Ale Pleasure'
p579
sL579L
S'Quaff Bros Full Allotment'
p580
sL580L
S'Against the Grain / De Molen Bo & Luke'
p581
sL581L
S'Against the Grain 70K'
p582
sL582L
S'Defiance Fuzzy Knuckles'
p583
sL583L
S'Free State Hop Picker Pale Ale'
p584
sL584L
S'Liquid Bread Liberty Stout'
p585
sL585L
S'Tallgrass 16-Bit DPA'
p586
sL586L
S'Blind Tiger Java Porter'
p587
sL587L
S'Free State Hop Jack Ale'
p588
sL588L
S'Free State Belgian Muse IPA'
p589
sL589L
S'Liquid Bread Oatmeal Stout'
p590
sL590L
S'Free State Stormwatch Dark Ale'
p591
sL591L
S'Tallgrass Vanilla Bean Buffalo Sweat'
p592
sL592L
S'Blind Tiger Russian Imperial Stout'
p593
sL593L
S'Tallgrass Vanilla Bean Buffalo Sweat - Bourbon Barrel & Cinnamon'
p594
sL594L
S'Free State Winterfest IPA'
p595
sL595L
S'Free State Octoberfest'
p596
sL596L
S'Tallgrass Wooden Rooster'
p597
sL597L
S'Free State C4 Imperial Black IPA'
p598
sL598L
S'Madhouse Carpe Diem'
p599
sL599L
S'Tallgrass Big Ricc'
p600
sL600L
S'Tallgrass Ethos IPA'
p601
sL601L
S'Free State Black Jack Porter'
p602
sL602L
S'Free State Ironman Imperial Stout'
p603
sL603L
S'Tallgrass Zombie Monkie'
p604
sL604L
S'Free State Cloud Hopper Imperial IPA'
p605
sL605L
S'Free State Old Backus Barleywine'
p606
sL606L
S'Free State Owd Macs Imperial Stout'
p607
sL607L
S'Toppling Goliath Hopsmack!'
p608
sL608L
S'Toppling Goliath Xhops Series - Gamma'
p609
sL609L
S'Toppling Goliath ReGifter Double IPA'
p610
sL610L
S'Toppling Goliath XHops Series - Green'
p611
sL611L
S'Toppling Goliath pseudoSue - Citra Double Dry Hopped'
p612
sL612L
S'Toppling Goliath / Mikkeller Nelson Schmelsson'
p613
sL613L
S'Peace Tree No Coast IPA'
p614
sL614L
S'Toppling Goliath Thresher IPA'
p615
sL615L
S'Toppling Goliath Galaxy Dry Hopped pseudoSue'
p616
sL616L
S'Toppling Goliath Intergalactic Warrior IPA'
p617
sL617L
S'Toppling Goliath Golden Nugget IPA'
p618
sL618L
S'Toppling Goliath XHops Series - Gold'
p619
sL619L
S'Toppling Goliath Light Speed Pale Ale'
p620
sL620L
S'Toppling Goliath Mosaic Dry Hopped pseudoSue'
p621
sL621L
S'Toppling Goliath Sol Hunter Pale Ale'
p622
sL622L
S'Toppling Goliath ZeeLander'
p623
sL623L
S'Toppling Goliath / Tree House David'
p624
sL624L
S'Toppling Goliath Pompeii IPA'
p625
sL625L
S'Toppling Goliath Twisted Galaxy'
p626
sL626L
S'Toppling Goliath Sosus'
p627
sL627L
S'Toppling Goliath pseudoSue'
p628
sL628L
S'Toppling Goliath King Sue'
p629
sL629L
S'Toppling Goliath Mornin Delight'
p630
sL630L
S'Revolution Gravedigger Billy'
p631
sL631L
S'Half Acre Double Daisy Cutter'
p632
sL632L
S'Revolution Deths Tar'
p633
sL633L
S'Half Acre Beer Hates Astronauts'
p634
sL634L
S'Pipeworks Emerald Grouper'
p635
sL635L
S'Haymarket Indignant Imperial Stout - Bourbon Barrel'
p636
sL636L
S'Haymarket Clares Thirsty Ale'
p637
sL637L
S'Revolution Barrel Aged Institutionalized Barley Wine'
p638
sL638L
S'Pipeworks Unicorn Galaxy Imperial IPA'
p639
sL639L
S'Destihl Dosvidanya Russian Imperial Stout'
p640
sL640L
S'Half Acre Galactic Double Daisy Cutter'
p641
sL641L
S'Goose Island Bourbon County Stout - Templeton Rye Barrel'
p642
sL642L
S'Goose Island Imperial IPA'
p643
sL643L
S'Pipeworks Ninja Vs Unicorn Double IPA'
p644
sL644L
S'Goose Island Nutulhu'
p645
sL645L
S'Pipeworks Crimson Snapper'
p646
sL646L
S'Pipeworks Citra Imperial IPA'
p647
sL647L
S'Goose Island Night Stalker'
p648
sL648L
S'Goose Island Cthulhu'
p649
sL649L
S'Goose Island Bourbon County Stout - Regal Rye Barrel'
p650
sL650L
S'Fargo Mighty Red'
p651
sL651L
S'Nebraska Reserve Series Barrel Aged HopAnomaly'
p652
sL652L
S'Nebraska Reserve Series Sexy Betty'
p653
sL653L
S'Nebraska Reserve Series Black Betty Russian Imperial Stout'
p654
sL654L
S'Nebraska New Oak-aged Rye IPA'
p655
sL655L
S'Lucky Bucket Certified Evil 2010'
p656
sL656L
S'Great Basin Tectonic Event IPA'
p657
sL657L
S'Smuttynose Julios Fashionably Old Ale'
p658
sL658L
S'Ramstein Winter Wheat'
p659
sL659L
S'Bosque (NM) Scale Tipper IPA'
p660
sL660L
S'Grimm Lambo Door'
p661
sL661L
S'Wicked Weed White Angel'
p662
sL662L
S'Hoppin Frog Barrel Aged BORIS Bairille Aois'
p663
sL663L
S'Prairie Americana'
p664
sL664L
S'Upright Fantasia'
p665
sL665L
S'Selins Grove Pumpkin Ale'
p666
sL666L
S'Revival White Electric Coffee Stout'
p667
sL667L
S'Newport Storm Cyclone Series Vlad'
p668
sL668L
S'Union Station Vanilla Bean Porter'
p669
sL669L
S'Trinity Russian Imperial Stout'
p670
sL670L
S'Grey Sail Pour Judgement IPA'
p671
sL671L
S'Narragansett Private Stock Imperial Russian Stout'
p672
sL672L
S'Proclamation Tendril'
p673
sL673L
S'Newport Storm Cyclone Series Zach'
p674
sL674L
S'Narragansett Autocrat Coffee Milk Stout'
p675
sL675L
S'Foolproof Raincloud Porter'
p676
sL676L
S'Union Station Half Day IPA'
p677
sL677L
S'Foolproof Shuckolate'
p678
sL678L
S'Revival Burnsider Pale Ale'
p679
sL679L
S'Proclamation zzzlumber'
p680
sL680L
S'Proclamation Zzzlumber - Barrel-Aged'
p681
sL681L
S'Revival Double Black IPA'
p682
sL682L
S'Trinity Decadence Imperial IPA'
p683
sL683L
S'Grey Sail Stargazer Imperial Stout'
p684
sL684L
S'Proclamation Derivative Mosaic Hopped Pale Ale'
p685
sL685L
S'Foolproof Revery Russian Imperial Stout'
p686
sL686L
S'Proclamation Keraterra (Citra/Amarillo)'
p687
sL687L
S'Proclamation Derivative Citra Hopped Pale Ale'
p688
sL688L
S'Proclamation Postcursor'
p689
sL689L
S'Proclamation Derivative Galaxy Hopped Pale Ale'
p690
sL690L
S'Grey Sail Captains Daughter'
p691
sL691L
S'Tregs Nugget Nectar Ale'
p692
sL692L
S'Forest & Main Paradisaea'
p693
sL693L
S'Tired Hands Virgins & Diamonds'
p694
sL694L
S'Selins Grove Bourbon St. Fillans Wee Heavy'
p695
sL695L
S'Bullfrog Le Roar Grrrz Kriek'
p696
sL696L
S'Bullfrog Le Roar Grrrz Aardbei'
p697
sL697L
S'Bullfrog Le Roar Grrrz Plum'
p698
sL698L
S'Bullfrog Le Roar Grrrz'
p699
sL699L
S'Tired Hands Pineal IPA'
p700
sL700L
S'Tired Hands We Are All Infinite Energy Vibrating at the Same Frequency'
p701
sL701L
S'Voodoo The K13'
p702
sL702L
S'Voodoo Grande Negro Voodoo Papi (Lairds Apple Brandy)'
p703
sL703L
S'Bullfrog Le Roar Grrrz Apricot'
p704
sL704L
S'Tired Hands Sticky Drippy Crystals'
p705
sL705L
S'Victory Old Horizontal'
p706
sL706L
S'Victory Storm King Imperial Stout'
p707
sL707L
S'Pizza Boy Sunny Side Up - Double Coffee'
p708
sL708L
S'Bullfrog Et Tu Brut'
p709
sL709L
S'Bullfrog Le Roar Grrrz Druiven'
p710
sL710L
S'Selins Grove The Phoenix Kriek'
p711
sL711L
S'Ottos Bourbon-Barrel Aged Jolly Roger Imperial Stout'
p712
sL712L
S'Voodoo Grande Negro Voodoo Papi (Bourbon Barrel Aged)'
p713
sL713L
S'Voodoo ManBearPig'
p714
sL714L
S'Cascade Noyaux'
p715
sL715L
S'Upright Flora Rustica (Barrel Aged)'
p716
sL716L
S'Rogue Double Chocolate Stout'
p717
sL717L
S'Hair of the Dog Otto from the Wood'
p718
sL718L
S'De Garde / Side Project Saison Desay - Chardonnay Barrel'
p719
sL719L
S'De Garde Cherry Raz Bu'
p720
sL720L
S'De Garde The Anniversary'
p721
sL721L
S'Hair of the Dog Doggie Claws (2003-)'
p722
sL722L
S'De Garde Imperial Black Raz Bu'
p723
sL723L
S'Deschutes Black Butte XXVIII'
p724
sL724L
S'Hair of the Dog Cherry Adam from the Wood'
p725
sL725L
S'Pelican Mother of all Storms'
p726
sL726L
S'Boneyard Notorious IPA3'
p727
sL727L
S'De Garde The Broken Truck'
p728
sL728L
S'Logsdon Peche n Brett'
p729
sL729L
S'Block 15 Turbulent Consequence: Pche'
p730
sL730L
S'Deschutes The Abyss - Rye Whiskey'
p731
sL731L
S'Hair of the Dog Adam from the Wood'
p732
sL732L
S'De Garde Nectarine Premiere'
p733
sL733L
S'Hair of the Dog Fred from the Wood'
p734
sL734L
S'De Garde Imperial Purple Raz Bu'
p735
sL735L
S'De Garde The Peach'
p736
sL736L
S'Hair of the Dog Adam'
p737
sL737L
S'Deschutes The Abyss'
p738
sL738L
S'Prairie Merica'
p739
sL739L
S'Prairie Funky Gold Amarillo'
p740
sL740L
S'Prairie Okie'
p741
sL741L
S'Prairie Funky Gold Simcoe'
p742
sL742L
S'Anthem Pappy Burleson'
p743
sL743L
S'Roughtail Hoptometrist Double India Pale Ale'
p744
sL744L
S'Prairie Wine Barrel Noir'
p745
sL745L
S'Prairie Prairie Noir'
p746
sL746L
S'Prairie Pirate Noir'
p747
sL747L
S'Prairie Prairie Hop'
p748
sL748L
S'Prairie Funky Gold Mosaic'
p749
sL749L
S'Prairie Brett C.'
p750
sL750L
S'American Solera Foeder Gold'
p751
sL751L
S'Prairie Coffee Okie'
p752
sL752L
S'Prairie Paradise'
p753
sL753L
S'Prairie Bomb! - Balcones Barrel Aged'
p754
sL754L
S'American Solera Foeder Cerise'
p755
sL755L
S'Prairie Freds Blend'
p756
sL756L
S'Prairie / Evil Twin Bible Belt'
p757
sL757L
S'Prairie Pirate Bomb!'
p758
sL758L
S'Prairie Bomb! - Barrel Aged'
p759
sL759L
S'Prairie Bomb!'
p760
sL760L
S'Prairie Apple Brandy Barrel Noir'
p761
sL761L
S'Hoppin Frog Rocky Mountain BORIS'
p762
sL762L
S'Hoppin Frog TORIS The Tyrant: Triple Oatmeal Stout'
p763
sL763L
S'Columbus Bodhi'
p764
sL764L
S'Great Lakes Chillwave Double IPA'
p765
sL765L
S'Jackie Os Bourbon Barrel Oil Of Aphrodite'
p766
sL766L
S'Fat Heads Head Hunter IPA'
p767
sL767L
S'Jackie Os Coffee Bourbon Barrel Oil Of Aphrodite'
p768
sL768L
S'Hoppin Frog BORIS Batch #200'
p769
sL769L
S'Warped Wing Baltic Argonaut'
p770
sL770L
S'Jackie Os Bourbon Barrel Champion Ground'
p771
sL771L
S'Jackie Os Bourbon Barrel Dark Apparition'
p772
sL772L
S'Hoppin Frog Cafe BORIS'
p773
sL773L
S'Fat Heads Hop JuJu Imperial IPA'
p774
sL774L
S'Jackie Os Bourbon Barrel Oro Negro'
p775
sL775L
S'Hoppin Frog Barrel Aged BORIS Royale'
p776
sL776L
S'Hoppin Frog Barrel Aged BORIS Van Wink'
p777
sL777L
S'Jackie Os Vanilla & Coffee Bean Bourbon Barrel Dark Apparition'
p778
sL778L
S'Great Lakes Blackout Stout - Barrel-Aged'
p779
sL779L
S'Jackie Os Iced Coffee Apparition'
p780
sL780L
S'Thirsty Dog Siberian Night Imperial Stout'
p781
sL781L
S'Hoppin Frog BORIS The Crusher'
p782
sL782L
S'Hoppin Frog DORIS The Destroyer'
p783
sL783L
S'Hoppin Frog Barrel Aged DORIS The Destroyer'
p784
sL784L
S'Hoppin Frog Barrel Aged BORIS The Crusher'
p785
sL785L
S'Fargo Super Green'
p786
sL786L
S'Laughing Sun Cosmic Owl Belgian Pale Ale'
p787
sL787L
S'Pointe of View Winery Dry Apple Wine'
p788
sL788L
S'Pointe of View Winery H2BC'
p789
sL789L
S'Fargo Original Pale Lager'
p790
sL790L
S'Pointe of View Winery Semi-Dry Honey Wine'
p791
sL791L
S'Maple River Winery Country Crabapple Wine'
p792
sL792L
S'Pointe of View Winery Sweet Honey Wine'
p793
sL793L
S'Fargo Stones Throw Scottish Ale'
p794
sL794L
S'Pointe of View Winery Honey Wine with Elderflowers'
p795
sL795L
S'Maple River Winery Honey Apple Wine'
p796
sL796L
S'Fargo Wind Swept Belgian Witbier'
p797
sL797L
S'Laughing Sun Strawberry Wheat'
p798
sL798L
S'Fargo Roustabout Stout'
p799
sL799L
S'Fargo OFest Oktoberfest Lager'
p800
sL800L
S'Laughing Sun Sinister Pear'
p801
sL801L
S'Pointe of View Winery Apple Wine'
p802
sL802L
S'Fargo Wood Chipper IPA'
p803
sL803L
S'Maple River Winery Honeycomb Plum'
p804
sL804L
S'Laughing Sun Black Shox Porter'
p805
sL805L
S'Fargo Sodbuster Porter'
p806
sL806L
S'Pointe of View Winery Viking Deed'
p807
sL807L
S'Laughing Sun Feast Like a Sultan IPA'
p808
sL808L
S'Fargo Iron Horse Pale Ale'
p809
sL809L
S'Wicked Weed Montmaretto (Canvas Series)'
p810
sL810L
S'Foothills Seeing Double IPA'
p811
sL811L
S'Highland Black Watch Double Chocolate Milk Stout'
p812
sL812L
S'Wicked Weed Framboos Morte'
p813
sL813L
S'Pisgah Valdez'
p814
sL814L
S'Foothills Baltic Porter'
p815
sL815L
S'NoDa Hop, Drop n Roll IPA'
p816
sL816L
S'Wicked Weed Angel of Darkness'
p817
sL817L
S'Wicked Weed Pernicious IPA'
p818
sL818L
S'Wicked Weed Bramble Barrel'
p819
sL819L
S'Wicked Weed Ruffian Imperial Black IPA'
p820
sL820L
S'Wicked Weed Freak Of Nature Double IPA'
p821
sL821L
S'Wicked Weed Mnage-a-Freak'
p822
sL822L
S'Wicked Weed Cherry Go Lightly'
p823
sL823L
S'Wicked Weed Golden Angel'
p824
sL824L
S'Wicked Weed Garon de Ferme'
p825
sL825L
S'Wicked Weed Medora Blackberry Raspberry Sour'
p826
sL826L
S'Foothills Barrel Aged Sexual Chocolate Imperial Stout'
p827
sL827L
S'Wicked Weed Red Angel'
p828
sL828L
S'Foothills Sexual Chocolate Imperial Stout'
p829
sL829L
S'Foothills / Duck-Rabbit / Olde Hickory Olde Rabbits Foot'
p830
sL830L
S'The Duck-Rabbit Baltic Porter'
p831
sL831L
S'Wicked Weed Dark Age Bourbon Stout'
p832
sL832L
S'Olde Hickory The Event Horizon'
p833
sL833L
S'Southern Tier Blackwater Series: Mokah'
p834
sL834L
S'Evil Twin Auld Yin'
p835
sL835L
S'Brooklyn Black Ops'
p836
sL836L
S'Southern Tier Oaked Pumking'
p837
sL837L
S'Other Half Double Mosaic Dream'
p838
sL838L
S'Evil Twin Imperial Doughnut Break'
p839
sL839L
S'Other Half Mosaic'
p840
sL840L
S'Evil Twin Imperial Biscotti Break Raspberry Umami'
p841
sL841L
S'Brooklyn Black Chocolate Stout'
p842
sL842L
S'Southern Tier Imperial Oat'
p843
sL843L
S'Captain Lawrence Rosso e Marrone'
p844
sL844L
S'Evil Twin Even More Jesus Port'
p845
sL845L
S'Evil Twin Imperial Biscotti Break - DeCicco Version'
p846
sL846L
S'Evil Twin An Ms Caf Jess'
p847
sL847L
S'Evil Twin An Ms a Jess'
p848
sL848L
S'Captain Lawrence Cuvee de Castleton'
p849
sL849L
S'Southern Tier Blackwater Series: Choklat'
p850
sL850L
S'Evil Twin Imperial Biscotti Break'
p851
sL851L
S'Evil Twin Even More Jesus'
p852
sL852L
S'Evil Twin Pappys Imperial Biscotti Break'
p853
sL853L
S'Southampton Imperial Russian Stout'
p854
sL854L
S'Evil Twin Imperial Biscotti Break - Bourbon Barrel'
p855
sL855L
S'La Cumbre La Roja Grande'
p856
sL856L
S'La Cumbre Father Nelson'
p857
sL857L
S'Evil Twin Double Barrel Jesus'
p858
sL858L
S'Evil Twin Pappys Even More Jesus'
p859
sL859L
S'Chama River Imperial Red'
p860
sL860L
S'Santa Fe Barrel Aged Sour State Pen Porter'
p861
sL861L
S'Marble Imperial Red Ale'
p862
sL862L
S'Marble India Pale Ale'
p863
sL863L
S'La Cumbre El Negro RIS'
p864
sL864L
S'Santa Fe Los Innovadores Kriek'
p865
sL865L
S'Marble D.I.P.A.'
p866
sL866L
S'Marble Reserve Ale'
p867
sL867L
S'Santa Fe Wild Ale #6 (Bordeaux Series)'
p868
sL868L
S'Chama River Dangerous Intensions'
p869
sL869L
S'Santa Fe State Pen Imperial Porter'
p870
sL870L
S'Chama River Anastasia Wine Barrel Aged Russian Imperial Stout'
p871
sL871L
S'La Cumbre Red Ryeot'
p872
sL872L
S'La Cumbre Acclimated IPA'
p873
sL873L
S'Santa Fe Imperial Java Stout'
p874
sL874L
S'Marble Imperial Stout'
p875
sL875L
S'Marble Bourbon Barrel-Aged Imperial Stout'
p876
sL876L
S'La Cumbre Cafe Con Leche'
p877
sL877L
S'La Cumbre Malpais Stout'
p878
sL878L
S'La Cumbre Project Dank'
p879
sL879L
S'La Cumbre Elevated IPA'
p880
sL880L
S'La Cumbre Full Nelson'
p881
sL881L
S'Kane Silent Nights'
p882
sL882L
S'Carton Epitome'
p883
sL883L
S'Carton 077XX'
p884
sL884L
S'Triumph Jewish Rye Beer'
p885
sL885L
S'Triumph Imperial Stout'
p886
sL886L
S'Kane Overhead'
p887
sL887L
S'Flying Fish Exit 16 WE Wild Rice Double IPA'
p888
sL888L
S'Triumph Coffee & Cream Stout'
p889
sL889L
S'Harvest Moon Oceanus Procellarum'
p890
sL890L
S'Melovino Southern Berry'
p891
sL891L
S'Ramstein Eis Storm Eisbock'
p892
sL892L
S'Carton Dune Fruit'
p893
sL893L
S'Kane Hop Lab #9 - Citra Pale Ale'
p894
sL894L
S'Kane A Night to End All Dawns - Coffee'
p895
sL895L
S'Alba Vineyard Forbidden'
p896
sL896L
S'Kane A Night to End All Dawns'
p897
sL897L
S'Kane Mexican Brunch'
p898
sL898L
S'Kane Head High'
p899
sL899L
S'Triumph Rauchweizen'
p900
sL900L
S'Carton Shipwreck Porter'
p901
sL901L
S'Kane A Night to End All Dawns - Cacao'
p902
sL902L
S'Kane Sunday Brunch'
p903
sL903L
S'Kane A Night to End All Dawns - Vanilla Bean'
p904
sL904L
S'Kane A Night To End All Dawns - Coconut'
p905
sL905L
S'Stoneface Mozaccalypse'
p906
sL906L
S'603 Granite Stout'
p907
sL907L
S'Kelsen Vendel Imperial Stout'
p908
sL908L
S'Deciduous Cumulation'
p909
sL909L
S'Stoneface RIS - Bourbon Barrel Aged'
p910
sL910L
S'Deciduous Lambent'
p911
sL911L
S'Smuttynose Smuttlabs Shebang'
p912
sL912L
S'Smuttynose Big Beer Series: Rocky Road Stout'
p913
sL913L
S'Stoneface IPA'
p914
sL914L
S'Stoneface RIS'
p915
sL915L
S'White Birch Nyx'
p916
sL916L
S'Deciduous Renascence'
p917
sL917L
S'Stoneface Porter'
p918
sL918L
S'Portsmouth Royal Impy Stout'
p919
sL919L
S'Portsmouth Barleywine'
p920
sL920L
S'Stoneface Hopulization'
p921
sL921L
S'Smuttynose Big A IPA'
p922
sL922L
S'Smuttynose Robust Porter'
p923
sL923L
S'Moonlight Meadery Kurts Apple Pie'
p924
sL924L
S'Moonlight Meadery Destiny'
p925
sL925L
S'Great Basin Hop Head Ale'
p926
sL926L
S'Smuttynose Smuttlabs Apple Brandy Barrel Aged Gravitation'
p927
sL927L
S'Smuttynose Smuttlabs Imperial Stout'
p928
sL928L
S'Smuttynose Big Beer Series: Imperial Stout'
p929
sL929L
S'Smuttynose Baltic Porter'
p930
sL930L
S'Triple 7 Marker Pale Ale'
p931
sL931L
S'Joseph James Im Out Imperial Stout'
p932
sL932L
S'Silver Peak Peavine Porter'
p933
sL933L
S'Joseph James 6th Anniversary Barrel-aged Rye Wine'
p934
sL934L
S'Tenaya Creek Tandem Double India Pale Ale'
p935
sL935L
S'Great Basin Outlaw Milk Stout'
p936
sL936L
S'Chicago Hardway IPA'
p937
sL937L
S'Big Dogs Dirty Dog IPA'
p938
sL938L
S'Bad Beat Hoppy Times IPA'
p939
sL939L
S'Tenaya Creek Hop Ride IPA'
p940
sL940L
S'Big Dogs Sled Dog Imperial Stout'
p941
sL941L
S'Tenaya Creek Monsoon Double IPA'
p942
sL942L
S'Great Basin Scytale 385'
p943
sL943L
S'Nebraska Inception Series Ardent Son'
p944
sL944L
S'Nebraska Inception Series Franc Blanc'
p945
sL945L
S'Tenaya Creek Red Ryder'
p946
sL946L
S'Saint James Plum Lambic'
p947
sL947L
S'Big Dogs War Dog Imperial IPA'
p948
sL948L
S'Joseph James Citra Rye Pale Ale'
p949
sL949L
S'Joseph James Barrel Smoker'
p950
sL950L
S'Joseph James Baby J German Chocolate Cake Stout'
p951
sL951L
S'Tenaya Creek Old Jackalope Barleywine'
p952
sL952L
S'Saint James Daily Wages'
p953
sL953L
S'Tenaya Creek Imperial Stout'
p954
sL954L
S'Joseph James Bourbon Barrel-Aged Russian Imperial Stout'
p955
sL955L
S'Brickway Vanilla Coffee Stout'
p956
sL956L
S'Lucky Bucket IPA'
p957
sL957L
S'Nebraska Inception Series #08 - Blanc is The New White'
p958
sL958L
S'Nebraska Inception Series Tart Apricot Saison'
p959
sL959L
S'Upstream Gianduja Imperial Rye Brown Ale'
p960
sL960L
S'Lucky Bucket Barrel Aged Kriek'
p961
sL961L
S'Nebraska Reserve Series Responsibly'
p962
sL962L
S'Nebraska India Pale Ale (2011- )'
p963
sL963L
S'Jaipur Jalapeo Ale'
p964
sL964L
S'Lucky Bucket Whiskey Barrel Aged Certified Evil'
p965
sL965L
S'Thunderhead Espresso Stout'
p966
sL966L
S'Nebraska HopAnomaly'
p967
sL967L
S'Nebraska Inception Series Runnin with the Devil'
p968
sL968L
S'Nebraska Little Betty Russian Imperial Stout'
p969
sL969L
S'Nebraska Reserve Series Barrel Aged Fathead'
p970
sL970L
S'Nebraska Apricot Au Poivre Saison'
p971
sL971L
S'Nebraska Reserve Series Melange A Trois'
p972
sL972L
S'Upstream Grand Cru'
p973
sL973L
S'Dempseys Longship Lager'
p974
sL974L
S'Reaver Beach The Kracken'
p975
sL975L
S'DC Brau For Others'
p976
sL976L
S'Westbrook Mexican Cake Imperial Stout - Pappy Barrel'
p977
sL977L
S'Westbrook 4th Anniversary - Bourbon Barrel Aged'
p978
sL978L
S'Westbrook Mexican Cake Imperial Stout - Bourbon Barrel (2014)'
p979
sL979L
S'Westbrook Mexican Cake Imperial Stout'
p980
sL980L
S'Westbrook Mexican Cake Imperial Stout - Red Wine Barrel'
p981
sL981L
S'Westbrook Leopold'
p982
sL982L
S'Blackberry Farm Apricot Saison'
p983
sL983L
S'Brash Vulgar Display of Power'
p984
sL984L
S'Uinta Crooked Line Stompin Grounds Coffee Stout'
p985
sL985L
S'Hill Farmstead Works of Love (Sante Adairius - 2013)'
p986
sL986L
S'Elysian Punkuccino Coffee Pumpkin Ale'
p987
sL987L
S'Bridge Brew Works The Blunt'
p988
sL988L
S'Tyranena BGW Dirty Old Man'
p989
sL989L
S'Library Rattlesnake Rye Pale Ale'
p990
sL990L
S'Melvin Brosaic'
p991
sL991L
S'Altitude 7200 Stout'
p992
sL992L
S'Melvin Killer Bees'
p993
sL993L
S'Freedoms Edge High Noon Chili Pepper Ale'
p994
sL994L
S'Black Tooth Indian Paintbrush Ale'
p995
sL995L
S'Black Tooth Hot Streak IPA'
p996
sL996L
S'Wind River Strom Bomb Oatmeal Stout'
p997
sL997L
S'Bitter Creek A Beer Named Bob'
p998
sL998L
S'Wind River Wyoming Pale Ale (WPA)'
p999
sL999L
S'Black Tooth Saddle Bronc Brown'
p1000
sL1000L
S'Melvin Clinic ISA'
p1001
sL1001L
S'Altitude High Plains Pale Ale'
p1002
sL1002L
S'Snake River Danimals Farmhouse Saison'
p1003
sL1003L
S'Snake River Pakos IPA'
p1004
sL1004L
S'Melvin Drunken Master'
p1005
sL1005L
S'Snake River Zonker Stout'
p1006
sL1006L
S'Snake River Le Serpent Cerise'
p1007
sL1007L
S'Brenner Witchcraft Imperial Stout'
p1008
sL1008L
S'Snake River Le Serpent'
p1009
sL1009L
S'Melvin Hubert MPA'
p1010
sL1010L
S'Melvin IPA'
p1011
sL1011L
S'Melvin Asterisk Double IPA'
p1012
sL1012L
S'Melvin Shaolin Brew IPA'
p1013
sL1013L
S'Melvin 2x4'
p1014
sL1014L
S'Snake River Le Serpent Framboise'
p1015
sL1015L
S'New Glarus Dancing Man Wheat'
p1016
sL1016L
S'New Glarus Thumbprint Series Cran-bic Ale'
p1017
sL1017L
S'New Glarus R & D Vintage 2014'
p1018
sL1018L
S'Leinenkugels Big Eddy Russian Imperial Stout'
p1019
sL1019L
S'New Glarus Thumbprint Series Wild Sour Ale'
p1020
sL1020L
S'New Glarus Thumbprint Series Scream IIPA'
p1021
sL1021L
S'Central Waters Brewers Reserve Bourbon Barrel Scotch Ale'
p1022
sL1022L
S'New Glarus Thumbprint Series IIPA'
p1023
sL1023L
S'Central Waters Black Gold'
p1024
sL1024L
S'Mountain Dragon Tulip Poplar Honey Mead'
p1025
sL1025L
S'Central Waters 18 Anniversary Edition'
p1026
sL1026L
S'Central Waters Brewers Reserve Bourbon Barrel Barleywine'
p1027
sL1027L
S'Central Waters Brewers Reserve Bourbon Barrel Stout'
p1028
sL1028L
S'Funk Factory Geuzeria / Oso Framrood'
p1029
sL1029L
S'Tyranena BGW The Devil Made Me Do It'
p1030
sL1030L
S'Tyranena BGW Whos Your Daddy? Bourbon Barrel-Aged Imperial Porter'
p1031
sL1031L
S'Central Waters 17 Anniversary Edition'
p1032
sL1032L
S'Tyranena BGW Devil Over A Barrel'
p1033
sL1033L
S'New Glarus Raspberry Tart'
p1034
sL1034L
S'New Glarus R & D Wild Peach'
p1035
sL1035L
S'New Glarus Serendipity'
p1036
sL1036L
S'Funk Factory Geuzeria / Oso Frampaars'
p1037
sL1037L
S'New Glarus Wisconsin Belgian Red'
p1038
sL1038L
S'Central Waters Ardea Insignis Imperial Stout'
p1039
sL1039L
S'Bridge Brew Works Black Diamond Lager'
p1040
sL1040L
S'Lost River Black Ale'
p1041
sL1041L
S'Greenbrier Valley Wild & Wonderful Series #2: Hefeweizen'
p1042
sL1042L
S'Healthberry Farm Honey River Tulip Poplar Mead'
p1043
sL1043L
S'Morgantown First Shift Coffee Porter'
p1044
sL1044L
S'Bridge Brew Works India Pale Ale'
p1045
sL1045L
S'Morgantown Andersons Kettle Bottom Brown Ale'
p1046
sL1046L
S'Bridge Brew Works Trubell'
p1047
sL1047L
S'Big Timber IPA'
p1048
sL1048L
S'Morgantown Zack Morgans IPA'
p1049
sL1049L
S'Greenbrier Valley Wild Trail Pale Ale'
p1050
sL1050L
S'Bridge Brew Works Momma Rye IPA'
p1051
sL1051L
S'North End Dawks Classic Porter'
p1052
sL1052L
S'Kenco Farms Blue Mead'
p1053
sL1053L
S'Bridge Brew Works The Dun Glen Dubbel'
p1054
sL1054L
S'Greenbrier Valley Mothman Black IPA'
p1055
sL1055L
S'Greenbrier Valley Devil Anse IPA'
p1056
sL1056L
S'Bridge Brew Works Hellbender IPA'
p1057
sL1057L
S'Chestnut Brew Works Halleck Pale Ale'
p1058
sL1058L
S'Bluejacket P.X. Sherry Barrel-Aged High Society 2016'
p1059
sL1059L
S'Bluejacket Further'
p1060
sL1060L
S'3 Stars Starsky and Dutch'
p1061
sL1061L
S'Morgantown Coal City Stout'
p1062
sL1062L
S'Bridge Brew Works Peregrine Porter'
p1063
sL1063L
S'Bridge Brew Works Moxxee Coffee Stout'
p1064
sL1064L
S'Big Timber Porter'
p1065
sL1065L
S'Bluejacket Wary Fiend'
p1066
sL1066L
S'Bluejacket Mexican Radio (Whiskey Barrel Aged)'
p1067
sL1067L
S'Right Proper Kodachrome Dream(ing)'
p1068
sL1068L
S'Bluejacket / Intangible Ales Travlrs 12k'
p1069
sL1069L
S'Atlas Brew Works NSFW'
p1070
sL1070L
S'Bluejacket Lost Weekend'
p1071
sL1071L
S'DC Brau Alpha Domina Mellis'
p1072
sL1072L
S'DC Brau Penn Quarter Porter'
p1073
sL1073L
S'Bluejacket / Brooklyn / New Belgium Rheinard de Vos'
p1074
sL1074L
S'Right Proper The Lubitsch Touch'
p1075
sL1075L
S'Bluejacket Mexican Radio'
p1076
sL1076L
S'Bluejacket / Intangible Ales Gene Turns 10k'
p1077
sL1077L
S'Bluejacket Wallflower'
p1078
sL1078L
S'Bluejacket A Little Golden Gem'
p1079
sL1079L
S'Right Proper Kick.Kick.Snare'
p1080
sL1080L
S'DC Brau / Oskar Blues Smells Like Freedom'
p1081
sL1081L
S'James E. Pepper 1776 American Brown Ale'
p1082
sL1082L
S'Right Proper Diamonds, Fur Coat, Champagne'
p1083
sL1083L
S'DC Brau Solar Abyss'
p1084
sL1084L
S'DC Brau On the Wings of Armageddon'
p1085
sL1085L
S'Elysian The Fix'
p1086
sL1086L
S'Urban Family Lady of the Night'
p1087
sL1087L
S'Holy Mountain Midnight Still - Cherry Rye'
p1088
sL1088L
S'Pike XXXXX Stout'
p1089
sL1089L
S'Elysian Dragonstooth Stout'
p1090
sL1090L
S'Boundary Bay Imperial IPA'
p1091
sL1091L
S'Old Schoolhouse Imperial Stout'
p1092
sL1092L
S'Black Raven Grandfather Raven Imperial Stout'
p1093
sL1093L
S'Fish Tale 10 Anniversary Ale'
p1094
sL1094L
S'Silver City Le Fat'
p1095
sL1095L
S'Alpenfire smoke'
p1096
sL1096L
S'Holy Mountain Misre au Borinage'
p1097
sL1097L
S'LaConner Olde Curmudgeon'
p1098
sL1098L
S'Fremont Cowiche Canyon - Citra & Simcoe (Fresh Hop)'
p1099
sL1099L
S'Black Raven Wisdom Seeker Double IPA'
p1100
sL1100L
S'Holy Mountain Midnight Still - Coffee Vanilla'
p1101
sL1101L
S'Fremont Dark Star - Bourbon Barrel Spice Wars'
p1102
sL1102L
S'Fremont Abominable - Bourbon Barrel'
p1103
sL1103L
S'Walking Man Jaywalker Russian Imperial Stout'
p1104
sL1104L
S'Fremont Dark Star - Bourbon Barrel Coffee Edition'
p1105
sL1105L
S'Fremont Dark Star - Bourbon Barrel'
p1106
sL1106L
S'Fremont Rusty Nail'
p1107
sL1107L
S'Fremont Brew 1000'
p1108
sL1108L
S'Fremont Abominable - Bourbon Barrel Coffee Cinnamon'
p1109
sL1109L
S'Lickinghole Creek Heir Apparent'
p1110
sL1110L
S'Mad Fox Batch 100 Strong Black Ale'
p1111
sL1111L
S'Lickinghole Creek Coconut Quadrupel Ale'
p1112
sL1112L
S'Lickinghole Creek Great Commander'
p1113
sL1113L
S'The Veil Master Master Shredder Shredder'
p1114
sL1114L
S'Legend Imperial IPA'
p1115
sL1115L
S'The Veil Crucial Taunt Double IPA'
p1116
sL1116L
S'Devils Backbone / Wicked Weed Seven Summits'
p1117
sL1117L
S'Hardywood Bourbon Barrel Raspberry Stout With Vanilla Beans'
p1118
sL1118L
S'Hardywood Gingerbread Stout'
p1119
sL1119L
S'Hardywood Bourbon GBS (Gingerbread Stout)'
p1120
sL1120L
S'Hardywood Apple Brandy Barrel GBS (Gingerbread Stout)'
p1121
sL1121L
S'Sweetwater Tavern Barrel Aged High Desert Imperial Stout'
p1122
sL1122L
S'AleWerks Brewmasters Reserve Bourbon Barrel Porter'
p1123
sL1123L
S'Lickinghole Creek Supreme Leader'
p1124
sL1124L
S'Hardywood Trickery'
p1125
sL1125L
S'Three Notchd Biggie Smores Imperial Stout'
p1126
sL1126L
S'AleWerks Secret Admirer'
p1127
sL1127L
S'Sweetwater Tavern High Desert Imperial Stout'
p1128
sL1128L
S'Hardywood Christmas Morning'
p1129
sL1129L
S'Hardywood Kentucky Christmas Morning'
p1130
sL1130L
S'AleWerks Cafe Royale'
p1131
sL1131L
S'Hardywood Foolery'
p1132
sL1132L
S'AleWerks Bitter Valentine'
p1133
sL1133L
S'Hill Farmstead What Is Enlightenment?'
p1134
sL1134L
S'Hill Farmstead Society & Solitude #4'
p1135
sL1135L
S'Hill Farmstead Society & Solitude #3'
p1136
sL1136L
S'Hill Farmstead Flora - Plum'
p1137
sL1137L
S'Hill Farmstead Citra Single Hop Pale Ale'
p1138
sL1138L
S'Grassroots Legitimacy'
p1139
sL1139L
S'Hill Farmstead Susan'
p1140
sL1140L
S'Hill Farmstead Society & Solitude #2'
p1141
sL1141L
S'Hill Farmstead Dorothy - Wine Barrel Aged'
p1142
sL1142L
S'Lawsons Finest Double Sunshine IPA'
p1143
sL1143L
S'Hill Farmstead Society & Solitude #6'
p1144
sL1144L
S'Hill Farmstead Genealogy of Morals - Bourbon'
p1145
sL1145L
S'Hill Farmstead Everett'
p1146
sL1146L
S'Hill Farmstead Double Galaxy'
p1147
sL1147L
S'Hill Farmstead Double Citra'
p1148
sL1148L
S'Hill Farmstead Society & Solitude #5'
p1149
sL1149L
S'Hill Farmstead Juicy'
p1150
sL1150L
S'Hill Farmstead Ephraim'
p1151
sL1151L
S'Hill Farmstead Damon'
p1152
sL1152L
S'Hill Farmstead Abner'
p1153
sL1153L
S'Alchemist Heady Topper'
p1154
sL1154L
S'Hill Farmstead Ann'
p1155
sL1155L
S'Epic / DC Brau Brainless: Corruption'
p1156
sL1156L
S'Epic Smoked & Oaked Belgian-Style Ale'
p1157
sL1157L
S'Epic Imperial Red Ale'
p1158
sL1158L
S'Epic Double Barrel Big Bad Baptist'
p1159
sL1159L
S'Hoppers Summerset Saison'
p1160
sL1160L
S'Epic Brainless IPA'
p1161
sL1161L
S'Uinta Crooked Line Oak Jacked Imperial Pumpkin'
p1162
sL1162L
S'Epic Hopulent IPA'
p1163
sL1163L
S'Red Rock Paardebloem'
p1164
sL1164L
S'Epic Imperial IPA'
p1165
sL1165L
S'Epic / Crooked Stave Elder Brett Saison-Brett Golden Ale'
p1166
sL1166L
S'Epic Imperial Stout'
p1167
sL1167L
S'Uinta Crooked Line Cockeyed Cooper'
p1168
sL1168L
S'Epic Old Sage Brett'
p1169
sL1169L
S'Epic Sour Brainless on Peaches'
p1170
sL1170L
S'Squatters 529'
p1171
sL1171L
S'Epic Son of a Baptist'
p1172
sL1172L
S'Uinta Dubhe Imperial Black IPA'
p1173
sL1173L
S'Uinta Crooked Line Sea Legs Baltic Porter'
p1174
sL1174L
S'Squatters Outer Darkness'
p1175
sL1175L
S'Jester King Nocturn Chrysalis - Gin Barrel Aged'
p1176
sL1176L
S'Uinta Crooked Line Labyrinth Black Ale'
p1177
sL1177L
S'Squatters Fifth Element'
p1178
sL1178L
S'Epic Big Bad Baptist'
p1179
sL1179L
S'Epic Big Bad Baptista'
p1180
sL1180L
S'(512) Cascabel Cream Stout'
p1181
sL1181L
S'Austin Beerworks Heavy Machinery IPA Series #2: Double IPA'
p1182
sL1182L
S'Freetail Raspberry Ananke'
p1183
sL1183L
S'Real Ale The Kraken'
p1184
sL1184L
S'Jester King / Mikkeller Whiskey Barrel Rodeo'
p1185
sL1185L
S'Brash Biggie Smalls Imperial Brown Ale'
p1186
sL1186L
S'Jester King Nocturn Chrysalis (Batch 2+)'
p1187
sL1187L
S'Lakewood Bourbon Barrel Temptress (BBT)'
p1188
sL1188L
S'Saint Arnold Bishops Barrel #8'
p1189
sL1189L
S'Jester King / Mikkeller Weasel Rodeo'
p1190
sL1190L
S'Jester King Aurelian Lure'
p1191
sL1191L
S'Brash Cortado'
p1192
sL1192L
S'Jester King Bire de Syrah'
p1193
sL1193L
S'Jester King (Fn to)'
p1194
sL1194L
S'Jester King Bire de Blanc du Bois'
p1195
sL1195L
S'Saint Arnold Divine Reserve #15'
p1196
sL1196L
S'Karbach 003 Bourbon Barrel Hellfighter'
p1197
sL1197L
S'Lakewood French Quarter Temptress'
p1198
sL1198L
S'Saint Arnold Bishops Barrel #1'
p1199
sL1199L
S'Community Barrel Aged Legion'
p1200
sL1200L
S'Jester King Montmorency vs. Balaton'
p1201
sL1201L
S'Jester King Atrial Rubicite'
p1202
sL1202L
S'Jester King Sherry Barrel Atrial Rubicite'
p1203
sL1203L
S'Terminal BrewHouse Magnum PA'
p1204
sL1204L
S'Blackberry Farm Spring Saison'
p1205
sL1205L
S'Yazoo Sly Rye Porter'
p1206
sL1206L
S'Turtle Anarchy Another Way to Rye'
p1207
sL1207L
S'Terminal BrewHouse The White Shadow'
p1208
sL1208L
S'Yazoo / New Belgium Embrace The Funk Series: Rufus'
p1209
sL1209L
S'Wiseacre Adjective Animal'
p1210
sL1210L
S'Blackberry Farm Barrel Series - Brett Saison'
p1211
sL1211L
S'Terminal BrewHouse Southsidenstein Stout'
p1212
sL1212L
S'Blackberry Farm Blackberry Rye'
p1213
sL1213L
S'Boscos HopGod Ale'
p1214
sL1214L
S'Blackstone Adam Bomb IPA'
p1215
sL1215L
S'Blackberry Farm New World Cuvee Dry Hop Saison (2016)'
p1216
sL1216L
S'Yazoo Fortuitous'
p1217
sL1217L
S'Yazoo Embrace The Funk Series: Citra Luxe'
p1218
sL1218L
S'Blackberry Farm Brett Saison'
p1219
sL1219L
S'Wiseacre Gotta Get Up to Get Down Coffee Milk Stout'
p1220
sL1220L
S'Yazoo Embrace the Funk Series: Deux Rouges'
p1221
sL1221L
S'Blackberry Farm / Evil Twin From Tennessee With Smoke'
p1222
sL1222L
S'Blackberry Farm Classic Saison'
p1223
sL1223L
S'Yazoo SUE'
p1224
sL1224L
S'Blackberry Farm Summer Saison'
p1225
sL1225L
S'Dempseys Valkyrie Red'
p1226
sL1226L
S'Crow Peak Easy Livin Summer Ale'
p1227
sL1227L
S'Crow Peak Redwater Ale'
p1228
sL1228L
S'Crow Peak Roughlocktoberfest'
p1229
sL1229L
S'Firehouse Honey Rye Porter'
p1230
sL1230L
S'Firehouse Strong Arm Porter'
p1231
sL1231L
S'Firehouse Prodigy Porter'
p1232
sL1232L
S'Firehouse Brewers Golden'
p1233
sL1233L
S'Wiseacre Astronaut Status'
p1234
sL1234L
S'Sick N Twisted Hop On Top IPA'
p1235
sL1235L
S'Firehouse Brown Cow Ale'
p1236
sL1236L
S'Crow Peak Canyon Cream Ale'
p1237
sL1237L
S'Firehouse Wilderness Wheat'
p1238
sL1238L
S'Firehouse Buffalo Bitter'
p1239
sL1239L
S'Firehouse Red'
p1240
sL1240L
S'Crow Peak Eleventh Hour IPA'
p1241
sL1241L
S'Fernson IPA'
p1242
sL1242L
S'Fernson Farmhouse Ale'
p1243
sL1243L
S'Firehouse Chukkar Ale'
p1244
sL1244L
S'Crow Peak Bear Butte Brown Ale'
p1245
sL1245L
S'Crow Peak Mjollnir'
p1246
sL1246L
S'Sick N Twisted Panty Droppin Porter'
p1247
sL1247L
S'Firehouse Smoke Jumper Stout'
p1248
sL1248L
S'Crow Peak Pile-O-Dirt Porter'
p1249
sL1249L
S'Prairie Berry Raspberry Honeywine'
p1250
sL1250L
S'Westbrook Anfernee - Whiskey Barrel Aged'
p1251
sL1251L
S'Westbrook Shanes Big DIPA'
p1252
sL1252L
S'Westbrook 5th Anniversary Chocolate Raspberry Imperial Stout'
p1253
sL1253L
S'Westbrook 2nd Anniversary Capn Skoons Ballistic Stout'
p1254
sL1254L
S'Westbrook / Evil Twin Mini Growler'
p1255
sL1255L
S'COAST The Boy King Double IPA'
p1256
sL1256L
S'Westbrook 4th Anniversary Chocolate Coconut Almond Imperial Stout'
p1257
sL1257L
S'Humboldt Black Xantus'
p1258
sL1258L
S'COAST Blackbeerd Imperial Stout - Bourbon Barrel'
p1259
sL1259L
S'Westbrook Siberian Black Magic Panther - Bourbon Barrel'
p1260
sL1260L
S'Westbrook 2nd Anniversary Capn Skoons Ballistic Stout - Bourbon Barrel'
p1261
sL1261L
S'Westbrook Comrade Appleseed'
p1262
sL1262L
S'COAST Blackbeerd Imperial Stout - Jack Daniels Barrel'
p1263
sL1263L
S'Westbrook Siberian Black Magic Panther - Apple Brandy Barrel'
p1264
sL1264L
S'Westbrook Mexican Cake Imperial Stout - Double Chocolate Bourbon Barrel'
p1265
sL1265L
S'Westbrook Mexican Cake Imperial Stout - Coffee'
p1266
sL1266L
S'Westbrook Mexican Cake Imperial Stout - Tequila Barrel'
p1267
sL1267L
S'Westbrook Mexican Cake Imperial Stout - Bourbon Barrel (2015)'
p1268
sL1268L
S'Westbrook Mexican Cake Imperial Stout - Bourbon Coconut'
p1269
s.