(dp0
S'Selins Grove Pumpkin Ale'
p1
(lp2
S'Pennsylvania'
p3
aF16.4
aF16.7
aS'https://www.google.com/#q=Selins Grove Pumpkin Ale'
p4
asS'Side Project Unblended (Barrel #40)'
p5
(lp6
S'Missouri'
p7
aF16.2
aF16.6
aS'https://www.google.com/#q=Side Project Unblended (Barrel #40)'
p8
asS'Three Floyds Baller Stout'
p9
(lp10
S'Indiana'
p11
aF16.1
aF16.3
aS'https://www.google.com/#q=Three Floyds Baller Stout'
p12
asS'Russian River Pliny the Younger'
p13
(lp14
S'California'
p15
aF17.5
aF17.8
aS'https://www.google.com/#q=Russian River Pliny the Younger'
p16
asS'Schramms The Statement - Reserve'
p17
(lp18
S'Michigan'
p19
aF17.5
aF17.6
aS'https://www.google.com/#q=Schramms The Statement - Reserve'
p20
asS'Bluegrass Bourbon Barrel Russian Imperial Porter'
p21
(lp22
S'Kentucky'
p23
aF15.7
aF16.0
aS'https://www.google.com/#q=Bluegrass Bourbon Barrel Russian Imperial Porter'
p24
asS'Joseph James Bourbon Barrel-Aged Russian Imperial Stout'
p25
(lp26
S'Nevada'
p27
aF15.4
aF15.6
aS'https://www.google.com/#q=Joseph James Bourbon Barrel-Aged Russian Imperial Stout'
p28
asS'Schramms Black Agnes'
p29
(lp30
g19
aF17.2
aF17.2
aS'https://www.google.com/#q=Schramms Black Agnes'
p31
asS'Tired Hands We Are All Infinite Energy Vibrating at the Same Frequency'
p32
(lp33
g3
aF16.2
aF16.5
aS'https://www.google.com/#q=Tired Hands We Are All Infinite Energy Vibrating at the Same Frequency'
p34
asS'Core Toasted Coconut Ale'
p35
(lp36
S'Arkansas'
p37
aF13.2
aF12.7
aS'https://www.google.com/#q=Core Toasted Coconut Ale'
p38
asS'Morgantown First Shift Coffee Porter'
p39
(lp40
S'West Virginia'
p41
aF13.9
aF14.0
aS'https://www.google.com/#q=Morgantown First Shift Coffee Porter'
p42
asS'OEC Artista Zynergia: Gosatequin (Blend #1)'
p43
(lp44
S'Connecticut'
p45
aF15.5
aF15.9
aS'https://www.google.com/#q=OEC Artista Zynergia: Gosatequin (Blend #1)'
p46
asS'Crooked Stave Petite Sour Hibiscus & Cinnamon (Apple/Peach Whiskey)'
p47
(lp48
S'Colorado'
p49
aF16.3
aF16.5
aS'https://www.google.com/#q=Crooked Stave Petite Sour Hibiscus & Cinnamon (Apple/Peach Whiskey)'
p50
asS'Free State Black Jack Porter'
p51
(lp52
S'Kansas'
p53
aF14.8
aF15.0
aS'https://www.google.com/#q=Free State Black Jack Porter'
p54
asS'Central Waters Brewers Reserve Bourbon Barrel Barleywine'
p55
(lp56
S'Wisconsin'
p57
aF15.6
aF15.9
aS'https://www.google.com/#q=Central Waters Brewers Reserve Bourbon Barrel Barleywine'
p58
asS'Ozark Onyx Coffee Stout'
p59
(lp60
g37
aF14.7
aF15.3
aS'https://www.google.com/#q=Ozark Onyx Coffee Stout'
p61
asS'Boscos HopGod Ale'
p62
(lp63
S'Tennessee'
p64
aF14.7
aF15.1
aS'https://www.google.com/#q=Boscos HopGod Ale'
p65
asS'Snake River Zonker Stout'
p66
(lp67
S'Wyoming'
p68
aF14.7
aF14.9
aS'https://www.google.com/#q=Snake River Zonker Stout'
p69
asS'Saint Arnold Bishops Barrel #1'
p70
(lp71
S'Texas'
p72
aF15.9
aF16.2
aS'https://www.google.com/#q=Saint Arnold Bishops Barrel #1'
p73
asS'Humboldt Black Xantus'
p74
(lp75
S'South Carolina'
p76
aF15.6
aF15.9
aS'https://www.google.com/#q=Humboldt Black Xantus'
p77
asS'Snake River Le Serpent Framboise'
p78
(lp79
g68
aF16.4
aF16.9
aS'https://www.google.com/#q=Snake River Le Serpent Framboise'
p80
asS'Southern Tier Blackwater Series: Choklat'
p81
(lp82
S'New York'
p83
aF16.3
aF16.3
aS'https://www.google.com/#q=Southern Tier Blackwater Series: Choklat'
p84
asS'Surly Darkness'
p85
(lp86
S'Minnesota'
p87
aF16.9
aF17.0
aS'https://www.google.com/#q=Surly Darkness'
p88
asS'Parish Farmhouse IPA'
p89
(lp90
S'Louisiana'
p91
aF15.1
aF15.5
aS'https://www.google.com/#q=Parish Farmhouse IPA'
p92
asS'Nebraska Inception Series Tart Apricot Saison'
p93
(lp94
S'Nebraska'
p95
aF14.6
aF14.9
aS'https://www.google.com/#q=Nebraska Inception Series Tart Apricot Saison'
p96
asS'Highland Black Watch Double Chocolate Milk Stout'
p97
(lp98
S'North Carolina'
p99
aF16.1
aF16.4
aS'https://www.google.com/#q=Highland Black Watch Double Chocolate Milk Stout'
p100
asS'18th Street Barrel Aged Hunter - Wheat Whiskey'
p101
(lp102
g11
aF16.1
aF16.1
aS'https://www.google.com/#q=18th Street Barrel Aged Hunter - Wheat Whiskey'
p103
asS'Foolproof Shuckolate'
p104
(lp105
S'Rhode Island'
p106
aF14.3
aF14.5
aS'https://www.google.com/#q=Foolproof Shuckolate'
p107
asS'Crow Peak Canyon Cream Ale'
p108
(lp109
S'South Dakota'
p110
aF9.8
aF9.5
aS'https://www.google.com/#q=Crow Peak Canyon Cream Ale'
p111
asS'Fargo Iron Horse Pale Ale'
p112
(lp113
S'North Dakota'
p114
aF14.0
aF14.3
aS'https://www.google.com/#q=Fargo Iron Horse Pale Ale'
p115
asS'Pointe of View Winery Semi-Dry Honey Wine'
p116
(lp117
g114
aF10.2
aF10.4
aS'https://www.google.com/#q=Pointe of View Winery Semi-Dry Honey Wine'
p118
asS'Side Project Derivation Blend #3'
p119
(lp120
g7
aF16.8
aF17.1
aS'https://www.google.com/#q=Side Project Derivation Blend #3'
p121
asS'Bridge Brew Works India Pale Ale'
p122
(lp123
g41
aF13.1
aF13.2
aS'https://www.google.com/#q=Bridge Brew Works India Pale Ale'
p124
asS'Perennial Barrel Aged Sump'
p125
(lp126
g7
aF16.1
aF16.3
aS'https://www.google.com/#q=Perennial Barrel Aged Sump'
p127
asS'Great Basin Scytale 385'
p128
(lp129
g27
aF15.9
aF16.0
aS'https://www.google.com/#q=Great Basin Scytale 385'
p130
asS'Dempseys Longship Lager'
p131
(lp132
g110
aF11.0
aF10.5
aS'https://www.google.com/#q=Dempseys Longship Lager'
p133
asS'Prairie Americana'
p134
(lp135
S'Oklahoma'
p136
aF15.4
aF15.7
aS'https://www.google.com/#q=Prairie Americana'
p137
asS'Crow Peak Mjollnir'
p138
(lp139
g110
aF13.2
aF13.4
aS'https://www.google.com/#q=Crow Peak Mjollnir'
p140
asS'Santa Fe Los Innovadores Kriek'
p141
(lp142
S'New Mexico'
p143
aF15.0
aF15.4
aS'https://www.google.com/#q=Santa Fe Los Innovadores Kriek'
p144
asS'De Garde Nectarine Premiere'
p145
(lp146
S'Oregon'
p147
aF16.8
aF17.1
aS'https://www.google.com/#q=De Garde Nectarine Premiere'
p148
asS'Trillium Congress Street IPA'
p149
(lp150
S'Massachusetts'
p151
aF16.2
aF16.4
aS'https://www.google.com/#q=Trillium Congress Street IPA'
p152
asS'Funky Buddha Snowed In - Bourbon Barrel'
p153
(lp154
S'Florida'
p155
aF17.3
aF17.5
aS'https://www.google.com/#q=Funky Buddha Snowed In - Bourbon Barrel'
p156
asS'Toppling Goliath Golden Nugget IPA'
p157
(lp158
S'Iowa'
p159
aF15.3
aF15.5
aS'https://www.google.com/#q=Toppling Goliath Golden Nugget IPA'
p160
asS'Big Sky Biere de Noel'
p161
(lp162
S'Montana'
p163
aF14.1
aF14.4
aS'https://www.google.com/#q=Big Sky Biere de Noel'
p164
asS'Deschutes The Abyss - Rye Whiskey'
p165
(lp166
g147
aF16.4
aF16.7
aS'https://www.google.com/#q=Deschutes The Abyss - Rye Whiskey'
p167
asS'Grand Teton Double Vision Doppelbock'
p168
(lp169
S'Idaho'
p170
aF15.2
aF15.5
aS'https://www.google.com/#q=Grand Teton Double Vision Doppelbock'
p171
asS'3 Stars Starsky and Dutch'
p172
(lp173
S'Washington DC'
p174
aF15.7
aF15.2
aS'https://www.google.com/#q=3 Stars Starsky and Dutch'
p175
asS'Tenaya Creek Monsoon Double IPA'
p176
(lp177
g27
aF14.1
aF14.3
aS'https://www.google.com/#q=Tenaya Creek Monsoon Double IPA'
p178
asS'Big Island Red Giant Ale'
p179
(lp180
S'Hawaii'
p181
aF14.4
aF14.4
aS'https://www.google.com/#q=Big Island Red Giant Ale'
p182
asS'Two Roads Unorthodox'
p183
(lp184
g45
aF15.0
aF15.1
aS'https://www.google.com/#q=Two Roads Unorthodox'
p185
asS'Hill Farmstead What Is Enlightenment?'
p186
(lp187
S'Vermont'
p188
aF16.4
aF16.7
aS'https://www.google.com/#q=Hill Farmstead What Is Enlightenment?'
p189
asS'Prairie Coffee Okie'
p190
(lp191
g136
aF15.7
aF16.0
aS'https://www.google.com/#q=Prairie Coffee Okie'
p192
asS'Newport Storm Cyclone Series Vlad'
p193
(lp194
g106
aF14.9
aF15.4
aS'https://www.google.com/#q=Newport Storm Cyclone Series Vlad'
p195
asS'Maui Brewing Shipwreck Stout'
p196
(lp197
g181
aF14.4
aF14.7
aS'https://www.google.com/#q=Maui Brewing Shipwreck Stout'
p198
asS'Westbrook / Evil Twin Mini Growler'
p199
(lp200
g76
aF15.6
aF15.8
aS'https://www.google.com/#q=Westbrook / Evil Twin Mini Growler'
p201
asS'Cigar City Caff Americano Double Stout'
p202
(lp203
g155
aF16.7
aF16.8
aS'https://www.google.com/#q=Cigar City Caff Americano Double Stout'
p204
asS'Big Sky Ivan The Terrible Imperial Stout'
p205
(lp206
g163
aF15.0
aF15.2
aS'https://www.google.com/#q=Big Sky Ivan The Terrible Imperial Stout'
p207
asS'Toppling Goliath Pompeii IPA'
p208
(lp209
g159
aF16.0
aF16.2
aS'https://www.google.com/#q=Toppling Goliath Pompeii IPA'
p210
asS'Prairie Bomb! - Barrel Aged'
p211
(lp212
g136
aF16.6
aF16.8
aS'https://www.google.com/#q=Prairie Bomb! - Barrel Aged'
p213
asS'De Garde The Broken Truck'
p214
(lp215
g147
aF17.2
aF17.4
aS'https://www.google.com/#q=De Garde The Broken Truck'
p216
asS'Crow Peak Pile-O-Dirt Porter'
p217
(lp218
g110
aF13.4
aF13.5
aS'https://www.google.com/#q=Crow Peak Pile-O-Dirt Porter'
p219
asS'Firehouse Strong Arm Porter'
p220
(lp221
g110
aF12.5
aF13.5
aS'https://www.google.com/#q=Firehouse Strong Arm Porter'
p222
asS'Tree House Very Hazy'
p223
(lp224
g151
aF17.0
aF17.4
aS'https://www.google.com/#q=Tree House Very Hazy'
p225
asS'Funky Buddha Last Buffalo in the Park'
p226
(lp227
g155
aF17.8
aF17.9
aS'https://www.google.com/#q=Funky Buddha Last Buffalo in the Park'
p228
asS'Pike XXXXX Stout'
p229
(lp230
S'Washington'
p231
aF15.3
aF15.4
aS'https://www.google.com/#q=Pike XXXXX Stout'
p232
asS'New Belgium La Folie'
p233
(lp234
g49
aF15.9
aF16.2
aS'https://www.google.com/#q=New Belgium La Folie'
p235
asS'Hangar 24 Barrel Roll: Pugachev Royale'
p236
(lp237
g15
aF17.0
aF17.4
aS'https://www.google.com/#q=Hangar 24 Barrel Roll: Pugachev Royale'
p238
asS'Smuttynose Smuttlabs Imperial Stout'
p239
(lp240
S'New Hampshire'
p241
aF15.8
aF16.2
aS'https://www.google.com/#q=Smuttynose Smuttlabs Imperial Stout'
p242
asS'Schramms The Statement'
p243
(lp244
g19
aF16.6
aF16.9
aS'https://www.google.com/#q=Schramms The Statement'
p245
asS'Maui Brewing Big Swell IPA'
p246
(lp247
g181
aF14.6
aF14.8
aS'https://www.google.com/#q=Maui Brewing Big Swell IPA'
p248
asS'Voodoo ManBearPig'
p249
(lp250
g3
aF17.3
aF17.5
aS'https://www.google.com/#q=Voodoo ManBearPig'
p251
asS'Revival Burnsider Pale Ale'
p252
(lp253
g106
aF14.5
aF14.5
aS'https://www.google.com/#q=Revival Burnsider Pale Ale'
p254
asS'Pointe of View Winery Honey Wine with Elderflowers'
p255
(lp256
g114
aF11.5
aF11.6
aS'https://www.google.com/#q=Pointe of View Winery Honey Wine with Elderflowers'
p257
asS'Jackie Os Bourbon Barrel Champion Ground'
p258
(lp259
S'Ohio'
p260
aF16.3
aF16.7
aS'https://www.google.com/#q=Jackie Os Bourbon Barrel Champion Ground'
p261
asS'Against the Grain Brett The Hipman Hop'
p262
(lp263
g23
aF15.4
aF15.6
aS'https://www.google.com/#q=Against the Grain Brett The Hipman Hop'
p264
asS'Superstition Blue Berry White'
p265
(lp266
S'Arizona'
p267
aF17.9
aF18.1
aS'https://www.google.com/#q=Superstition Blue Berry White'
p268
asS'Right Proper The Lubitsch Touch'
p269
(lp270
g174
aF15.1
aF15.2
aS'https://www.google.com/#q=Right Proper The Lubitsch Touch'
p271
asS'Goose Island Night Stalker'
p272
(lp273
S'Illinois'
p274
aF16.1
aF16.3
aS'https://www.google.com/#q=Goose Island Night Stalker'
p275
asS'Yazoo Sly Rye Porter'
p276
(lp277
g64
aF14.2
aF14.4
aS'https://www.google.com/#q=Yazoo Sly Rye Porter'
p278
asS'Destihl Dosvidanya Russian Imperial Stout'
p279
(lp280
g274
aF16.1
aF16.2
aS'https://www.google.com/#q=Destihl Dosvidanya Russian Imperial Stout'
p281
asS'Surly Abrasive Ale'
p282
(lp283
g87
aF16.4
aF16.6
aS'https://www.google.com/#q=Surly Abrasive Ale'
p284
asS'Perennial Sump'
p285
(lp286
g7
aF16.2
aF16.4
aS'https://www.google.com/#q=Perennial Sump'
p287
asS'SPB Cicada Series Rgana Baltic Porter'
p288
(lp289
S'Mississippi'
p290
aF15.1
aF15.2
aS'https://www.google.com/#q=SPB Cicada Series Rgana Baltic Porter'
p291
asS'Evil Twin Imperial Biscotti Break - Bourbon Barrel'
p292
(lp293
g83
aF16.6
aF16.8
aS'https://www.google.com/#q=Evil Twin Imperial Biscotti Break - Bourbon Barrel'
p294
asS'Hill Farmstead Society & Solitude #6'
p295
(lp296
g188
aF16.6
aF16.8
aS'https://www.google.com/#q=Hill Farmstead Society & Solitude #6'
p297
asS'Toppling Goliath Twisted Galaxy'
p298
(lp299
g159
aF16.5
aF16.8
aS'https://www.google.com/#q=Toppling Goliath Twisted Galaxy'
p300
asS'Proclamation Keraterra (Citra/Amarillo)'
p301
(lp302
g106
aF15.1
aF14.9
aS'https://www.google.com/#q=Proclamation Keraterra (Citra/Amarillo)'
p303
asS'Back Forty Trade Day Cuban Coffee Stout'
p304
(lp305
S'Alabama'
p306
aF14.1
aF14.0
aS'https://www.google.com/#q=Back Forty Trade Day Cuban Coffee Stout'
p307
asS'Lost Forty Pale Ale'
p308
(lp309
g37
aF15.1
aF15.3
aS'https://www.google.com/#q=Lost Forty Pale Ale'
p310
asS'Anchorage The Experiment'
p311
(lp312
S'Alaska'
p313
aF15.8
aF15.9
aS'https://www.google.com/#q=Anchorage The Experiment'
p314
asS'Side Project Thicket'
p315
(lp316
g7
aF16.4
aF16.6
aS'https://www.google.com/#q=Side Project Thicket'
p317
asS'AleSmith Speedway Stout - Hawaiian'
p318
(lp319
g15
aF16.7
aF16.9
aS'https://www.google.com/#q=AleSmith Speedway Stout - Hawaiian'
p320
asS'Cycle Four Roses BA Rye Stout'
p321
(lp322
g155
aF17.7
aF18.0
aS'https://www.google.com/#q=Cycle Four Roses BA Rye Stout'
p323
asS'Yazoo SUE'
p324
(lp325
g64
aF15.2
aF15.4
aS'https://www.google.com/#q=Yazoo SUE'
p326
asS'Bitter Root Last Cast Black IPA'
p327
(lp328
g163
aF14.8
aF15.0
aS'https://www.google.com/#q=Bitter Root Last Cast Black IPA'
p329
asS'Fremont Cowiche Canyon - Citra & Simcoe (Fresh Hop)'
p330
(lp331
g231
aF15.6
aF15.8
aS'https://www.google.com/#q=Fremont Cowiche Canyon - Citra & Simcoe (Fresh Hop)'
p332
asS'Upstream Grand Cru'
p333
(lp334
g95
aF15.2
aF15.5
aS'https://www.google.com/#q=Upstream Grand Cru'
p335
asS'Lawsons Finest Double Sunshine IPA'
p336
(lp337
g188
aF16.5
aF16.7
aS'https://www.google.com/#q=Lawsons Finest Double Sunshine IPA'
p338
asS'Firehouse Brown Cow Ale'
p339
(lp340
g110
aF14.0
aF14.4
aS'https://www.google.com/#q=Firehouse Brown Cow Ale'
p341
asS'Joseph James Citra Rye Pale Ale'
p342
(lp343
g27
aF14.5
aF14.6
aS'https://www.google.com/#q=Joseph James Citra Rye Pale Ale'
p344
asS'Wrecking Bar Siberius Maximus Russian Imperial Stout'
p345
(lp346
S'Georgia'
p347
aF16.5
aF16.5
aS'https://www.google.com/#q=Wrecking Bar Siberius Maximus Russian Imperial Stout'
p348
asS'La Cumbre Red Ryeot'
p349
(lp350
g143
aF15.3
aF15.4
aS'https://www.google.com/#q=La Cumbre Red Ryeot'
p351
asS'Westbrook Mexican Cake Imperial Stout - Double Chocolate Bourbon Barrel'
p352
(lp353
g76
aF16.9
aF17.2
aS'https://www.google.com/#q=Westbrook Mexican Cake Imperial Stout - Double Chocolate Bourbon Barrel'
p354
asS'Jester King Aurelian Lure'
p355
(lp356
g72
aF15.6
aF15.9
aS'https://www.google.com/#q=Jester King Aurelian Lure'
p357
asS'Prairie Apple Brandy Barrel Noir'
p358
(lp359
g136
aF16.6
aF16.8
aS'https://www.google.com/#q=Prairie Apple Brandy Barrel Noir'
p360
asS'Altitude High Plains Pale Ale'
p361
(lp362
g68
aF14.1
aF14.1
aS'https://www.google.com/#q=Altitude High Plains Pale Ale'
p363
asS'Dogfish Head Burton Baton'
p364
(lp365
S'Delaware'
p366
aF15.3
aF15.6
aS'https://www.google.com/#q=Dogfish Head Burton Baton'
p367
asS'Santa Fe Barrel Aged Sour State Pen Porter'
p368
(lp369
g143
aF14.9
aF15.0
aS'https://www.google.com/#q=Santa Fe Barrel Aged Sour State Pen Porter'
p370
asS'Bullfrog Et Tu Brut'
p371
(lp372
g3
aF16.6
aF16.8
aS'https://www.google.com/#q=Bullfrog Et Tu Brut'
p373
asS'De Garde Imperial Black Raz Bu'
p374
(lp375
g147
aF16.5
aF16.6
aS'https://www.google.com/#q=De Garde Imperial Black Raz Bu'
p376
asS'Lickinghole Creek Supreme Leader'
p377
(lp378
S'Virginia'
p379
aF15.8
aF15.9
aS'https://www.google.com/#q=Lickinghole Creek Supreme Leader'
p380
asS'Toppling Goliath ZeeLander'
p381
(lp382
g159
aF15.5
aF15.7
aS'https://www.google.com/#q=Toppling Goliath ZeeLander'
p383
asS'Fargo Mighty Red'
p384
(lp385
g114
aF12.3
aF11.8
aS'https://www.google.com/#q=Fargo Mighty Red'
p386
asS'Maui Brewing KGB Woody'
p387
(lp388
g181
aF15.1
aF15.7
aS'https://www.google.com/#q=Maui Brewing KGB Woody'
p389
asS'Trillium Fort Point Pale Ale - Mosaic Dry Hopped'
p390
(lp391
g151
aF16.5
aF16.7
aS'https://www.google.com/#q=Trillium Fort Point Pale Ale - Mosaic Dry Hopped'
p392
asS'Snake River Pakos IPA'
p393
(lp394
g68
aF14.4
aF14.7
aS'https://www.google.com/#q=Snake River Pakos IPA'
p395
asS'Kane A Night to End All Dawns - Vanilla Bean'
p396
(lp397
S'New Jersey'
p398
aF16.2
aF16.6
aS'https://www.google.com/#q=Kane A Night to End All Dawns - Vanilla Bean'
p399
asS'Fargo Super Green'
p400
(lp401
g114
aF14.9
aF15.0
aS'https://www.google.com/#q=Fargo Super Green'
p402
asS'Wiseacre Astronaut Status'
p403
(lp404
g64
aF16.2
aF16.2
aS'https://www.google.com/#q=Wiseacre Astronaut Status'
p405
asS'5 Seasons North Quinte55ence'
p406
(lp407
g347
aF16.1
aF16.5
aS'https://www.google.com/#q=5 Seasons North Quinte55ence'
p408
asS'Black Tooth Saddle Bronc Brown'
p409
(lp410
g68
aF14.2
aF14.0
aS'https://www.google.com/#q=Black Tooth Saddle Bronc Brown'
p411
asS'Side Project Saison du Bl'
p412
(lp413
g7
aF16.0
aF16.3
aS'https://www.google.com/#q=Side Project Saison du Bl'
p414
asS'Stillwater Contemporary Works - Surround'
p415
(lp416
S'Maryland'
p417
aF15.1
aF15.2
aS'https://www.google.com/#q=Stillwater Contemporary Works - Surround'
p418
asS'New England 668 Chardonneighbor Of The Beast'
p419
(lp420
g45
aF15.7
aF16.1
aS'https://www.google.com/#q=New England 668 Chardonneighbor Of The Beast'
p421
asS'Grand Teton Pursuit of Hoppiness'
p422
(lp423
g170
aF14.6
aF14.8
aS'https://www.google.com/#q=Grand Teton Pursuit of Hoppiness'
p424
asS'Surly Darkness 2014 - Bottled'
p425
(lp426
g87
aF16.4
aF16.6
aS'https://www.google.com/#q=Surly Darkness 2014 - Bottled'
p427
asS'Cycle Nooner #9'
p428
(lp429
g155
aF17.0
aF17.3
aS'https://www.google.com/#q=Cycle Nooner #9'
p430
asS'Cycle Nooner #8'
p431
(lp432
g155
aF17.2
aF17.2
aS'https://www.google.com/#q=Cycle Nooner #8'
p433
asS'Flossmoor Station Pretty Big IPA'
p434
(lp435
g274
aF15.7
aF15.9
aS'https://www.google.com/#q=Flossmoor Station Pretty Big IPA'
p436
asS'Core Hilltop IPA'
p437
(lp438
g37
aF13.6
aF13.9
aS'https://www.google.com/#q=Core Hilltop IPA'
p439
asS'OEC Aeris Singularis (Pinot Noir/Gin Barrel)'
p440
(lp441
g45
aF15.6
aF15.9
aS'https://www.google.com/#q=OEC Aeris Singularis (Pinot Noir/Gin Barrel)'
p442
asS'Hardywood Bourbon Barrel Raspberry Stout With Vanilla Beans'
p443
(lp444
g379
aF15.8
aF15.9
aS'https://www.google.com/#q=Hardywood Bourbon Barrel Raspberry Stout With Vanilla Beans'
p445
asS'Bissell Brothers Swish'
p446
(lp447
S'Maine'
p448
aF16.5
aF16.5
aS'https://www.google.com/#q=Bissell Brothers Swish'
p449
asS'Central Waters 17 Anniversary Edition'
p450
(lp451
g57
aF16.3
aF16.6
aS'https://www.google.com/#q=Central Waters 17 Anniversary Edition'
p452
asS'Portsmouth Royal Impy Stout'
p453
(lp454
g241
aF15.5
aF15.6
aS'https://www.google.com/#q=Portsmouth Royal Impy Stout'
p455
asS'Lost Abbey Box Set: Track #10 (Bat out of Hell)'
p456
(lp457
g15
aF16.5
aF16.7
aS'https://www.google.com/#q=Lost Abbey Box Set: Track #10 (Bat out of Hell)'
p458
asS'Epic Old Sage Brett'
p459
(lp460
S'Utah'
p461
aF15.4
aF15.4
aS'https://www.google.com/#q=Epic Old Sage Brett'
p462
asS'Three Floyds Alpha Klaus'
p463
(lp464
g11
aF15.9
aF16.2
aS'https://www.google.com/#q=Three Floyds Alpha Klaus'
p465
asS'Free State Hop Picker Pale Ale'
p466
(lp467
g53
aF14.9
aF15.1
aS'https://www.google.com/#q=Free State Hop Picker Pale Ale'
p468
asS'Greenbrier Valley Mothman Black IPA'
p469
(lp470
g41
aF14.0
aF14.1
aS'https://www.google.com/#q=Greenbrier Valley Mothman Black IPA'
p471
asS'Flying Dog Wild Dog Barrel-Aged Gonzo'
p472
(lp473
g417
aF15.6
aF15.8
aS'https://www.google.com/#q=Flying Dog Wild Dog Barrel-Aged Gonzo'
p474
asS'Haymarket Clares Thirsty Ale'
p475
(lp476
g274
aF16.2
aF16.4
aS'https://www.google.com/#q=Haymarket Clares Thirsty Ale'
p477
asS'Blackberry Farm / Evil Twin From Tennessee With Smoke'
p478
(lp479
g64
aF15.3
aF15.6
aS'https://www.google.com/#q=Blackberry Farm / Evil Twin From Tennessee With Smoke'
p480
asS'Against the Grain / Dry & Bitter Your Lytest One'
p481
(lp482
g23
aF15.5
aF15.8
aS'https://www.google.com/#q=Against the Grain / Dry & Bitter Your Lytest One'
p483
asS'Maine Beer MO'
p484
(lp485
g448
aF15.8
aF16.0
aS'https://www.google.com/#q=Maine Beer MO'
p486
asS'Wrecking Bar Jemmy American Stout'
p487
(lp488
g347
aF15.4
aF15.7
aS'https://www.google.com/#q=Wrecking Bar Jemmy American Stout'
p489
asS'Narragansett Autocrat Coffee Milk Stout'
p490
(lp491
g106
aF13.9
aF13.9
aS'https://www.google.com/#q=Narragansett Autocrat Coffee Milk Stout'
p492
asS'Tenaya Creek Red Ryder'
p493
(lp494
g27
aF14.4
aF14.7
aS'https://www.google.com/#q=Tenaya Creek Red Ryder'
p495
asS'Midnight Sun Monks Mistress (Bourbon)'
p496
(lp497
g313
aF15.5
aF15.8
aS'https://www.google.com/#q=Midnight Sun Monks Mistress (Bourbon)'
p498
asS'Central Waters Brewers Reserve Bourbon Barrel Stout'
p499
(lp500
g57
aF15.7
aF16.0
aS'https://www.google.com/#q=Central Waters Brewers Reserve Bourbon Barrel Stout'
p501
asS'Brooklyn Black Ops'
p502
(lp503
g83
aF15.8
aF16.0
aS'https://www.google.com/#q=Brooklyn Black Ops'
p504
asS'Hill Farmstead Society & Solitude #5'
p505
(lp506
g188
aF16.7
aF17.0
aS'https://www.google.com/#q=Hill Farmstead Society & Solitude #5'
p507
asS'Firehouse Chukkar Ale'
p508
(lp509
g110
aF12.5
aF12.6
aS'https://www.google.com/#q=Firehouse Chukkar Ale'
p510
asS'Hair of the Dog Fred from the Wood'
p511
(lp512
g147
aF16.3
aF16.7
aS'https://www.google.com/#q=Hair of the Dog Fred from the Wood'
p513
asS'Santa Fe State Pen Imperial Porter'
p514
(lp515
g143
aF15.0
aF15.3
aS'https://www.google.com/#q=Santa Fe State Pen Imperial Porter'
p516
asS'Revolution Gravedigger Billy'
p517
(lp518
g274
aF15.7
aF15.8
aS'https://www.google.com/#q=Revolution Gravedigger Billy'
p519
asS'Free State Octoberfest'
p520
(lp521
g53
aF14.6
aF14.7
aS'https://www.google.com/#q=Free State Octoberfest'
p522
asS'Dogfish Head Raison D Extra'
p523
(lp524
g366
aF15.1
aF15.4
aS'https://www.google.com/#q=Dogfish Head Raison D Extra'
p525
asS'New England Fuzzy Baby Ducks IPA'
p526
(lp527
g45
aF16.9
aF17.1
aS'https://www.google.com/#q=New England Fuzzy Baby Ducks IPA'
p528
asS'Founders KBS (Kentucky Breakfast Stout)'
p529
(lp530
g19
aF17.2
aF17.4
aS'https://www.google.com/#q=Founders KBS (Kentucky Breakfast Stout)'
p531
asS'Tallgrass Vanilla Bean Buffalo Sweat'
p532
(lp533
g53
aF14.4
aF14.6
aS'https://www.google.com/#q=Tallgrass Vanilla Bean Buffalo Sweat'
p534
asS'Town Hall Masala Mama IPA'
p535
(lp536
g87
aF15.8
aF16.1
aS'https://www.google.com/#q=Town Hall Masala Mama IPA'
p537
asS'Flying Dog Imperial IPA - Citra Single Hop'
p538
(lp539
g417
aF15.0
aF15.3
aS'https://www.google.com/#q=Flying Dog Imperial IPA - Citra Single Hop'
p540
asS'Three Floyds Dark Lord Russian Imperial Stout (Bourbon Vanilla Bean)'
p541
(lp542
g11
aF17.4
aF17.5
aS'https://www.google.com/#q=Three Floyds Dark Lord Russian Imperial Stout (Bourbon Vanilla Bean)'
p543
asS'Upright Fantasia'
p544
(lp545
g147
aF16.0
aF16.3
aS'https://www.google.com/#q=Upright Fantasia'
p546
asS'Trillium Scaled - Double Dry Hopped'
p547
(lp548
g151
aF16.3
aF16.5
aS'https://www.google.com/#q=Trillium Scaled - Double Dry Hopped'
p549
asS'Half Acre Double Daisy Cutter'
p550
(lp551
g274
aF15.6
aF15.8
aS'https://www.google.com/#q=Half Acre Double Daisy Cutter'
p552
asS'Kona Old Blowhole Barley Wine'
p553
(lp554
g181
aF15.0
aF15.3
aS'https://www.google.com/#q=Kona Old Blowhole Barley Wine'
p555
asS'Trillium Upper Case'
p556
(lp557
g151
aF16.4
aF16.7
aS'https://www.google.com/#q=Trillium Upper Case'
p558
asS'Ramstein Winter Wheat'
p559
(lp560
g398
aF14.9
aF15.3
aS'https://www.google.com/#q=Ramstein Winter Wheat'
p561
asS'Hill Farmstead Genealogy of Morals - Bourbon'
p562
(lp563
g188
aF16.6
aF16.8
aS'https://www.google.com/#q=Hill Farmstead Genealogy of Morals - Bourbon'
p564
asS'Great Divide Yeti Imperial Stout - Espresso Oak Aged'
p565
(lp566
g49
aF16.5
aF16.6
aS'https://www.google.com/#q=Great Divide Yeti Imperial Stout - Espresso Oak Aged'
p567
asS'De Garde / Side Project Saison Desay - Chardonnay Barrel'
p568
(lp569
g147
aF16.5
aF16.9
aS'https://www.google.com/#q=De Garde / Side Project Saison Desay - Chardonnay Barrel'
p570
asS'Alaskan Smoked Porter'
p571
(lp572
g313
aF15.6
aF15.8
aS'https://www.google.com/#q=Alaskan Smoked Porter'
p573
asS'Smuttynose Robust Porter'
p574
(lp575
g241
aF15.3
aF15.5
aS'https://www.google.com/#q=Smuttynose Robust Porter'
p576
asS'Evil Twin Imperial Doughnut Break'
p577
(lp578
g83
aF15.9
aF16.0
aS'https://www.google.com/#q=Evil Twin Imperial Doughnut Break'
p579
asS'Triumph Jewish Rye Beer'
p580
(lp581
g398
aF15.0
aF15.3
aS'https://www.google.com/#q=Triumph Jewish Rye Beer'
p582
asS'Terminal BrewHouse The White Shadow'
p583
(lp584
g64
aF14.4
aF14.5
aS'https://www.google.com/#q=Terminal BrewHouse The White Shadow'
p585
asS'DuClaw Retribution'
p586
(lp587
g417
aF15.2
aF15.3
aS'https://www.google.com/#q=DuClaw Retribution'
p588
asS'Hill Farmstead Ephraim'
p589
(lp590
g188
aF16.7
aF17.1
aS'https://www.google.com/#q=Hill Farmstead Ephraim'
p591
asS'Hoppin Frog TORIS The Tyrant: Triple Oatmeal Stout'
p592
(lp593
g260
aF16.4
aF16.6
aS'https://www.google.com/#q=Hoppin Frog TORIS The Tyrant: Triple Oatmeal Stout'
p594
asS'Haymarket Indignant Imperial Stout - Bourbon Barrel'
p595
(lp596
g274
aF15.9
aF15.9
aS'https://www.google.com/#q=Haymarket Indignant Imperial Stout - Bourbon Barrel'
p597
asS'Tree House Green'
p598
(lp599
g151
aF16.2
aF16.5
aS'https://www.google.com/#q=Tree House Green'
p600
asS'Westbrook Leopold'
p601
(lp602
g76
aF15.4
aF15.6
aS'https://www.google.com/#q=Westbrook Leopold'
p603
asS'New Glarus R & D Vintage 2014'
p604
(lp605
g57
aF15.7
aF16.2
aS'https://www.google.com/#q=New Glarus R & D Vintage 2014'
p606
asS'Flying Dog Barrel-Aged Horn Dog'
p607
(lp608
g417
aF15.2
aF15.6
aS'https://www.google.com/#q=Flying Dog Barrel-Aged Horn Dog'
p609
asS'Westbrook 5th Anniversary Chocolate Raspberry Imperial Stout'
p610
(lp611
g76
aF15.6
aF15.6
aS'https://www.google.com/#q=Westbrook 5th Anniversary Chocolate Raspberry Imperial Stout'
p612
asS'Freetail Raspberry Ananke'
p613
(lp614
g72
aF15.6
aF16.0
aS'https://www.google.com/#q=Freetail Raspberry Ananke'
p615
asS'Karbach 003 Bourbon Barrel Hellfighter'
p616
(lp617
g72
aF15.8
aF15.8
aS'https://www.google.com/#q=Karbach 003 Bourbon Barrel Hellfighter'
p618
asS'Stoneface Porter'
p619
(lp620
g241
aF15.4
aF15.6
aS'https://www.google.com/#q=Stoneface Porter'
p621
asS'Brau Brothers Rye Wyne Ale 2011'
p622
(lp623
g87
aF15.5
aF15.8
aS'https://www.google.com/#q=Brau Brothers Rye Wyne Ale 2011'
p624
asS'Three Floyds Permanent Funeral'
p625
(lp626
g11
aF16.1
aF16.3
aS'https://www.google.com/#q=Three Floyds Permanent Funeral'
p627
asS'Foothills / Duck-Rabbit / Olde Hickory Olde Rabbits Foot'
p628
(lp629
g99
aF16.0
aF16.3
aS'https://www.google.com/#q=Foothills / Duck-Rabbit / Olde Hickory Olde Rabbits Foot'
p630
asS'Goose Island Cthulhu'
p631
(lp632
g274
aF16.6
aF16.9
aS'https://www.google.com/#q=Goose Island Cthulhu'
p633
asS'Nebraska New Oak-aged Rye IPA'
p634
(lp635
g95
aF15.1
aF15.0
aS'https://www.google.com/#q=Nebraska New Oak-aged Rye IPA'
p636
asS'Midnight Sun Monks Mistress'
p637
(lp638
g313
aF15.7
aF16.0
aS'https://www.google.com/#q=Midnight Sun Monks Mistress'
p639
asS'Elysian The Fix'
p640
(lp641
g231
aF15.7
aF15.8
aS'https://www.google.com/#q=Elysian The Fix'
p642
asS'Morgantown Andersons Kettle Bottom Brown Ale'
p643
(lp644
g41
aF13.0
aF12.9
aS'https://www.google.com/#q=Morgantown Andersons Kettle Bottom Brown Ale'
p645
asS'Ozark American Pale Ale'
p646
(lp647
g37
aF14.8
aF15.0
aS'https://www.google.com/#q=Ozark American Pale Ale'
p648
asS'Pisgah Valdez'
p649
(lp650
g99
aF15.4
aF15.5
aS'https://www.google.com/#q=Pisgah Valdez'
p651
asS'Bells Expedition Stout'
p652
(lp653
g19
aF17.1
aF17.3
aS'https://www.google.com/#q=Bells Expedition Stout'
p654
asS'Rogue Double Chocolate Stout'
p655
(lp656
g147
aF16.0
aF16.1
aS'https://www.google.com/#q=Rogue Double Chocolate Stout'
p657
asS'Yazoo Fortuitous'
p658
(lp659
g64
aF14.6
aF14.7
aS'https://www.google.com/#q=Yazoo Fortuitous'
p660
asS'Town Hall Twisted Trace'
p661
(lp662
g87
aF15.8
aF16.2
aS'https://www.google.com/#q=Town Hall Twisted Trace'
p663
asS'Perennial Maman'
p664
(lp665
g7
aF16.7
aF17.2
aS'https://www.google.com/#q=Perennial Maman'
p666
asS'Flying Dog Double Dog Double Pale Ale'
p667
(lp668
g417
aF15.0
aF15.3
aS'https://www.google.com/#q=Flying Dog Double Dog Double Pale Ale'
p669
asS'Big Horn Tres Amigos Tequila Aged Imperial IPA'
p670
(lp671
g170
aF15.6
aF15.7
aS'https://www.google.com/#q=Big Horn Tres Amigos Tequila Aged Imperial IPA'
p672
asS'Captain Lawrence Cuvee de Castleton'
p673
(lp674
g83
aF16.3
aF16.7
aS'https://www.google.com/#q=Captain Lawrence Cuvee de Castleton'
p675
asS'Town Hall Coconut Milk Stout'
p676
(lp677
g87
aF15.7
aF15.8
aS'https://www.google.com/#q=Town Hall Coconut Milk Stout'
p678
asS'Bitter Creek A Beer Named Bob'
p679
(lp680
g68
aF13.9
aF13.7
aS'https://www.google.com/#q=Bitter Creek A Beer Named Bob'
p681
asS'White Birch Nyx'
p682
(lp683
g241
aF15.2
aF15.4
aS'https://www.google.com/#q=White Birch Nyx'
p684
asS'Side Project Framboise du Fermier'
p685
(lp686
g7
aF17.3
aF17.7
aS'https://www.google.com/#q=Side Project Framboise du Fermier'
p687
asS'Prairie Prairie Hop'
p688
(lp689
g136
aF15.4
aF15.7
aS'https://www.google.com/#q=Prairie Prairie Hop'
p690
asS'Hoppin Frog Barrel Aged BORIS Van Wink'
p691
(lp692
g260
aF16.3
aF16.5
aS'https://www.google.com/#q=Hoppin Frog Barrel Aged BORIS Van Wink'
p693
asS'Terminal BrewHouse Magnum PA'
p694
(lp695
g64
aF14.2
aF14.4
aS'https://www.google.com/#q=Terminal BrewHouse Magnum PA'
p696
asS'Lazy Magnolia Southern Hopspitality'
p697
(lp698
g290
aF13.8
aF14.0
aS'https://www.google.com/#q=Lazy Magnolia Southern Hopspitality'
p699
asS'Side Project Derivation Blend #1'
p700
(lp701
g7
aF17.5
aF17.8
aS'https://www.google.com/#q=Side Project Derivation Blend #1'
p702
asS'Prairie / Evil Twin Bible Belt'
p703
(lp704
g136
aF16.4
aF16.5
aS'https://www.google.com/#q=Prairie / Evil Twin Bible Belt'
p705
asS'Side Project Derivation Blend #2'
p706
(lp707
g7
aF17.9
aF18.4
aS'https://www.google.com/#q=Side Project Derivation Blend #2'
p708
asS'Pipeworks Unicorn Galaxy Imperial IPA'
p709
(lp710
g274
aF15.8
aF16.1
aS'https://www.google.com/#q=Pipeworks Unicorn Galaxy Imperial IPA'
p711
asS'Great Divide Yeti Imperial Stout - Chocolate Oak Aged'
p712
(lp713
g49
aF16.1
aF16.1
aS'https://www.google.com/#q=Great Divide Yeti Imperial Stout - Chocolate Oak Aged'
p714
asS'Hardywood Trickery'
p715
(lp716
g379
aF15.9
aF16.1
aS'https://www.google.com/#q=Hardywood Trickery'
p717
asS'Fargo Sodbuster Porter'
p718
(lp719
g114
aF13.6
aF13.5
aS'https://www.google.com/#q=Fargo Sodbuster Porter'
p720
asS'Pelican Mother of all Storms'
p721
(lp722
g147
aF16.1
aF16.4
aS'https://www.google.com/#q=Pelican Mother of all Storms'
p723
asS'AleSmith Speedway Stout - Velvet'
p724
(lp725
g15
aF17.4
aF17.4
aS'https://www.google.com/#q=AleSmith Speedway Stout - Velvet'
p726
asS'Wind River Strom Bomb Oatmeal Stout'
p727
(lp728
g68
aF14.1
aF13.9
aS'https://www.google.com/#q=Wind River Strom Bomb Oatmeal Stout'
p729
asS'Tallgrass Zombie Monkie'
p730
(lp731
g53
aF14.9
aF15.1
aS'https://www.google.com/#q=Tallgrass Zombie Monkie'
p732
asS'Epic Big Bad Baptist'
p733
(lp734
g461
aF16.2
aF16.3
aS'https://www.google.com/#q=Epic Big Bad Baptist'
p735
asS'Maine Beer Zoe'
p736
(lp737
g448
aF15.4
aF15.6
aS'https://www.google.com/#q=Maine Beer Zoe'
p738
asS'Big Sky Olde Bluehair Barleywine'
p739
(lp740
g163
aF14.9
aF15.3
aS'https://www.google.com/#q=Big Sky Olde Bluehair Barleywine'
p741
asS'Toppling Goliath King Sue'
p742
(lp743
g159
aF17.0
aF17.2
aS'https://www.google.com/#q=Toppling Goliath King Sue'
p744
asS'Big Dogs Sled Dog Imperial Stout'
p745
(lp746
g27
aF14.5
aF14.7
aS'https://www.google.com/#q=Big Dogs Sled Dog Imperial Stout'
p747
asS'Terrapin Side Project Hopzilla Double IPA'
p748
(lp749
g347
aF15.1
aF15.3
aS'https://www.google.com/#q=Terrapin Side Project Hopzilla Double IPA'
p750
asS'Funky Buddha Last Snow Porter'
p751
(lp752
g155
aF16.3
aF16.5
aS'https://www.google.com/#q=Funky Buddha Last Snow Porter'
p753
asS'Anchorage Mosaic Saison'
p754
(lp755
g313
aF15.5
aF15.8
aS'https://www.google.com/#q=Anchorage Mosaic Saison'
p756
asS'Bullfrog Le Roar Grrrz Apricot'
p757
(lp758
g3
aF16.2
aF16.6
aS'https://www.google.com/#q=Bullfrog Le Roar Grrrz Apricot'
p759
asS'J. Wakefield Miami Madness'
p760
(lp761
g155
aF16.8
aF17.1
aS'https://www.google.com/#q=J. Wakefield Miami Madness'
p762
asS'Hill Farmstead Double Citra'
p763
(lp764
g188
aF16.5
aF16.8
aS'https://www.google.com/#q=Hill Farmstead Double Citra'
p765
asS'Saint James Daily Wages'
p766
(lp767
g27
aF15.3
aF15.6
aS'https://www.google.com/#q=Saint James Daily Wages'
p768
asS'Foolproof Revery Russian Imperial Stout'
p769
(lp770
g106
aF14.8
aF14.9
aS'https://www.google.com/#q=Foolproof Revery Russian Imperial Stout'
p771
asS'Port Brewing Older Viscosity'
p772
(lp773
g15
aF16.4
aF16.7
aS'https://www.google.com/#q=Port Brewing Older Viscosity'
p774
asS'Fernson Farmhouse Ale'
p775
(lp776
g110
aF12.8
aF12.8
aS'https://www.google.com/#q=Fernson Farmhouse Ale'
p777
asS'Terrapin Big Hoppy Monster'
p778
(lp779
g347
aF15.2
aF15.5
aS'https://www.google.com/#q=Terrapin Big Hoppy Monster'
p780
asS'Mad Fox Batch 100 Strong Black Ale'
p781
(lp782
g379
aF16.2
aF16.1
aS'https://www.google.com/#q=Mad Fox Batch 100 Strong Black Ale'
p783
asS'Allagash Interlude'
p784
(lp785
g448
aF15.5
aF15.8
aS'https://www.google.com/#q=Allagash Interlude'
p786
asS'Hill Farmstead Abner'
p787
(lp788
g188
aF16.9
aF17.2
aS'https://www.google.com/#q=Hill Farmstead Abner'
p789
asS'Dogfish Head Beer for Breakfast'
p790
(lp791
g366
aF15.0
aF15.1
aS'https://www.google.com/#q=Dogfish Head Beer for Breakfast'
p792
asS'Grand Teton Sheep Eater Scotch Ale'
p793
(lp794
g170
aF14.9
aF14.8
aS'https://www.google.com/#q=Grand Teton Sheep Eater Scotch Ale'
p795
asS'Nebraska Reserve Series Barrel Aged HopAnomaly'
p796
(lp797
g95
aF15.3
aF15.5
aS'https://www.google.com/#q=Nebraska Reserve Series Barrel Aged HopAnomaly'
p798
asS'Funk Factory Geuzeria / Oso Framrood'
p799
(lp800
g57
aF16.3
aF16.5
aS'https://www.google.com/#q=Funk Factory Geuzeria / Oso Framrood'
p801
asS'Midnight Sun Berserker'
p802
(lp803
g313
aF16.4
aF16.6
aS'https://www.google.com/#q=Midnight Sun Berserker'
p804
asS'Superstition Endovelicus'
p805
(lp806
g267
aF17.8
aF17.9
aS'https://www.google.com/#q=Superstition Endovelicus'
p807
asS'Uinta Dubhe Imperial Black IPA'
p808
(lp809
g461
aF15.2
aF15.3
aS'https://www.google.com/#q=Uinta Dubhe Imperial Black IPA'
p810
asS'Tyranena BGW Devil Over A Barrel'
p811
(lp812
g57
aF16.1
aF16.4
aS'https://www.google.com/#q=Tyranena BGW Devil Over A Barrel'
p813
asS'Fernson IPA'
p814
(lp815
g110
aF12.8
aF13.0
aS'https://www.google.com/#q=Fernson IPA'
p816
asS'Casey The Cut: Balaton Cherry'
p817
(lp818
g49
aF16.6
aF17.1
aS'https://www.google.com/#q=Casey The Cut: Balaton Cherry'
p819
asS'Proclamation Postcursor'
p820
(lp821
g106
aF15.6
aF15.8
aS'https://www.google.com/#q=Proclamation Postcursor'
p822
asS'New England Supernaut IPA'
p823
(lp824
g45
aF16.0
aF16.5
aS'https://www.google.com/#q=New England Supernaut IPA'
p825
asS'AleSmith Speedway Stout - Bourbon Barrel Aged: Vietnamese Coffee'
p826
(lp827
g15
aF17.3
aF17.5
aS'https://www.google.com/#q=AleSmith Speedway Stout - Bourbon Barrel Aged: Vietnamese Coffee'
p828
asS'Surly Wet 2012 & 2015'
p829
(lp830
g87
aF15.6
aF15.8
aS'https://www.google.com/#q=Surly Wet 2012 & 2015'
p831
asS'Laughing Dog Devil Dog Imperial IPA'
p832
(lp833
g170
aF14.8
aF15.0
aS'https://www.google.com/#q=Laughing Dog Devil Dog Imperial IPA'
p834
asS'LaConner Olde Curmudgeon'
p835
(lp836
g231
aF16.1
aF16.3
aS'https://www.google.com/#q=LaConner Olde Curmudgeon'
p837
asS'Joseph James 6th Anniversary Barrel-aged Rye Wine'
p838
(lp839
g27
aF14.1
aF14.4
aS'https://www.google.com/#q=Joseph James 6th Anniversary Barrel-aged Rye Wine'
p840
asS'Roughtail Hoptometrist Double India Pale Ale'
p841
(lp842
g136
aF15.7
aF16.1
aS'https://www.google.com/#q=Roughtail Hoptometrist Double India Pale Ale'
p843
asS'Peace Tree Hop Sutra'
p844
(lp845
g159
aF14.8
aF14.9
aS'https://www.google.com/#q=Peace Tree Hop Sutra'
p846
asS'Jester King Atrial Rubicite'
p847
(lp848
g72
aF16.6
aF16.7
aS'https://www.google.com/#q=Jester King Atrial Rubicite'
p849
asS'Three Floyds Dark Lord Russian Imperial Stout (Aquavit Barrel Aged)'
p850
(lp851
g11
aF16.4
aF16.6
aS'https://www.google.com/#q=Three Floyds Dark Lord Russian Imperial Stout (Aquavit Barrel Aged)'
p852
asS'Big Dogs War Dog Imperial IPA'
p853
(lp854
g27
aF14.4
aF14.9
aS'https://www.google.com/#q=Big Dogs War Dog Imperial IPA'
p855
asS'Thomas Hooker Imperial Porter'
p856
(lp857
g45
aF14.8
aF15.0
aS'https://www.google.com/#q=Thomas Hooker Imperial Porter'
p858
asS'Cigar City Marshal Zhukovs Imperial Stout - Bourbon Barrel'
p859
(lp860
g155
aF16.6
aF16.8
aS'https://www.google.com/#q=Cigar City Marshal Zhukovs Imperial Stout - Bourbon Barrel'
p861
asS'Sweetwater Tavern High Desert Imperial Stout'
p862
(lp863
g379
aF15.9
aF16.1
aS'https://www.google.com/#q=Sweetwater Tavern High Desert Imperial Stout'
p864
asS'Blackberry Farm Spring Saison'
p865
(lp866
g64
aF14.6
aF14.8
aS'https://www.google.com/#q=Blackberry Farm Spring Saison'
p867
asS'SPB Devils Harvest Extra Pale Ale (-2016)'
p868
(lp869
g290
aF13.4
aF13.5
aS'https://www.google.com/#q=SPB Devils Harvest Extra Pale Ale (-2016)'
p870
asS'New England Imperial Stout Trooper (Bourbon)'
p871
(lp872
g45
aF15.1
aF15.1
aS'https://www.google.com/#q=New England Imperial Stout Trooper (Bourbon)'
p873
asS'The Duck-Rabbit Baltic Porter'
p874
(lp875
g99
aF16.1
aF16.3
aS'https://www.google.com/#q=The Duck-Rabbit Baltic Porter'
p876
asS'Big Sky Cowboy Coffee Porter'
p877
(lp878
g163
aF14.4
aF14.6
aS'https://www.google.com/#q=Big Sky Cowboy Coffee Porter'
p879
asS'Goose Island Bourbon County Stout - Templeton Rye Barrel'
p880
(lp881
g274
aF16.2
aF16.4
aS'https://www.google.com/#q=Goose Island Bourbon County Stout - Templeton Rye Barrel'
p882
asS'Prairie Okie'
p883
(lp884
g136
aF15.3
aF15.7
aS'https://www.google.com/#q=Prairie Okie'
p885
asS'Wrecking Bar Jemmy Dean Breakfast Stout'
p886
(lp887
g347
aF15.5
aF15.7
aS'https://www.google.com/#q=Wrecking Bar Jemmy Dean Breakfast Stout'
p888
asS'Anchorage Anadromous Belgian Black Bier'
p889
(lp890
g313
aF15.0
aF15.2
aS'https://www.google.com/#q=Anchorage Anadromous Belgian Black Bier'
p891
asS'Wicked Weed Medora Blackberry Raspberry Sour'
p892
(lp893
g99
aF16.0
aF16.2
aS'https://www.google.com/#q=Wicked Weed Medora Blackberry Raspberry Sour'
p894
asS'Smuttynose Big Beer Series: Imperial Stout'
p895
(lp896
g241
aF15.8
aF16.0
aS'https://www.google.com/#q=Smuttynose Big Beer Series: Imperial Stout'
p897
asS'Pipeworks Ninja Vs Unicorn Double IPA'
p898
(lp899
g274
aF15.9
aF16.1
aS'https://www.google.com/#q=Pipeworks Ninja Vs Unicorn Double IPA'
p900
asS'Allagash Merveilleux'
p901
(lp902
g448
aF15.7
aF16.1
aS'https://www.google.com/#q=Allagash Merveilleux'
p903
asS'Casey Brett Loves Citra'
p904
(lp905
g49
aF16.3
aF16.6
aS'https://www.google.com/#q=Casey Brett Loves Citra'
p906
asS'Parish Opus Vert'
p907
(lp908
g91
aF15.4
aF15.4
aS'https://www.google.com/#q=Parish Opus Vert'
p909
asS'Foothills Barrel Aged Sexual Chocolate Imperial Stout'
p910
(lp911
g99
aF16.0
aF16.3
aS'https://www.google.com/#q=Foothills Barrel Aged Sexual Chocolate Imperial Stout'
p912
asS'Stillwater Barrel Aged Series - Folklore, the tale of Van Winkle'
p913
(lp914
g417
aF15.7
aF15.9
aS'https://www.google.com/#q=Stillwater Barrel Aged Series - Folklore, the tale of Van Winkle'
p915
asS'Straight To Ale Velvet Evil'
p916
(lp917
g306
aF15.0
aF15.7
aS'https://www.google.com/#q=Straight To Ale Velvet Evil'
p918
asS'Schramms Madeline'
p919
(lp920
g19
aF17.7
aF17.7
aS'https://www.google.com/#q=Schramms Madeline'
p921
asS'Tree House Doppelganger'
p922
(lp923
g151
aF16.5
aF16.7
aS'https://www.google.com/#q=Tree House Doppelganger'
p924
asS'Uinta Crooked Line Sea Legs Baltic Porter'
p925
(lp926
g461
aF15.3
aF15.5
aS'https://www.google.com/#q=Uinta Crooked Line Sea Legs Baltic Porter'
p927
asS'OEC Nepenthes'
p928
(lp929
g45
aF15.5
aF16.0
aS'https://www.google.com/#q=OEC Nepenthes'
p930
asS'Upright Flora Rustica (Barrel Aged)'
p931
(lp932
g147
aF16.0
aF16.3
aS'https://www.google.com/#q=Upright Flora Rustica (Barrel Aged)'
p933
asS'Epic Imperial Stout'
p934
(lp935
g461
aF15.0
aF15.2
aS'https://www.google.com/#q=Epic Imperial Stout'
p936
asS'COAST Blackbeerd Imperial Stout - Bourbon Barrel'
p937
(lp938
g76
aF15.8
aF16.0
aS'https://www.google.com/#q=COAST Blackbeerd Imperial Stout - Bourbon Barrel'
p939
asS'Chandeleur Curlews Toasted Coconut Porter'
p940
(lp941
g290
aF13.6
aF13.8
aS'https://www.google.com/#q=Chandeleur Curlews Toasted Coconut Porter'
p942
asS'Laughing Dog Anubis Imperial Coffee Porter'
p943
(lp944
g170
aF14.6
aF14.7
aS'https://www.google.com/#q=Laughing Dog Anubis Imperial Coffee Porter'
p945
asS'DC Brau Solar Abyss'
p946
(lp947
g174
aF15.4
aF15.5
aS'https://www.google.com/#q=DC Brau Solar Abyss'
p948
asS'OEC Artista Zynergia: Oudilis'
p949
(lp950
g45
aF15.9
aF16.2
aS'https://www.google.com/#q=OEC Artista Zynergia: Oudilis'
p951
asS'The Veil Master Master Shredder Shredder'
p952
(lp953
g379
aF15.8
aF15.9
aS'https://www.google.com/#q=The Veil Master Master Shredder Shredder'
p954
asS'Grey Sail Captains Daughter'
p955
(lp956
g106
aF15.4
aF15.6
aS'https://www.google.com/#q=Grey Sail Captains Daughter'
p957
asS'Oxbow / Stillwater Stillbow Oxtisanal'
p958
(lp959
g448
aF15.9
aF16.1
aS'https://www.google.com/#q=Oxbow / Stillwater Stillbow Oxtisanal'
p960
asS'La Cumbre Full Nelson'
p961
(lp962
g143
aF16.6
aF16.7
aS'https://www.google.com/#q=La Cumbre Full Nelson'
p963
asS'Jaipur Jalapeo Ale'
p964
(lp965
g95
aF15.0
aF15.2
aS'https://www.google.com/#q=Jaipur Jalapeo Ale'
p966
asS'Maine Beer II'
p967
(lp968
g448
aF15.6
aF15.9
aS'https://www.google.com/#q=Maine Beer II'
p969
asS'La Cumbre La Roja Grande'
p970
(lp971
g143
aF15.8
aF15.8
aS'https://www.google.com/#q=La Cumbre La Roja Grande'
p972
asS'Toppling Goliath Intergalactic Warrior IPA'
p973
(lp974
g159
aF15.3
aF15.6
aS'https://www.google.com/#q=Toppling Goliath Intergalactic Warrior IPA'
p975
asS'Bluegrass Bearded Pats Barleywine Style Ale'
p976
(lp977
g23
aF14.4
aF14.6
aS'https://www.google.com/#q=Bluegrass Bearded Pats Barleywine Style Ale'
p978
asS'Columbus Bodhi'
p979
(lp980
g260
aF15.9
aF16.2
aS'https://www.google.com/#q=Columbus Bodhi'
p981
asS'Narragansett Private Stock Imperial Russian Stout'
p982
(lp983
g106
aF14.7
aF14.7
aS'https://www.google.com/#q=Narragansett Private Stock Imperial Russian Stout'
p984
asS'Jester King Sherry Barrel Atrial Rubicite'
p985
(lp986
g72
aF17.3
aF17.6
aS'https://www.google.com/#q=Jester King Sherry Barrel Atrial Rubicite'
p987
asS'Fremont Rusty Nail'
p988
(lp989
g231
aF16.8
aF17.1
aS'https://www.google.com/#q=Fremont Rusty Nail'
p990
asS'Toppling Goliath XHops Series - Gold'
p991
(lp992
g159
aF15.5
aF15.7
aS'https://www.google.com/#q=Toppling Goliath XHops Series - Gold'
p993
asS'Perennial Barrel Aged Sump (Rwandan Kyoto)'
p994
(lp995
g7
aF16.3
aF16.6
aS'https://www.google.com/#q=Perennial Barrel Aged Sump (Rwandan Kyoto)'
p996
asS'Elysian Punkuccino Coffee Pumpkin Ale'
p997
(lp998
g231
aF15.3
aF15.4
aS'https://www.google.com/#q=Elysian Punkuccino Coffee Pumpkin Ale'
p999
asS'Central Waters 18 Anniversary Edition'
p1000
(lp1001
g57
aF16.4
aF16.7
aS'https://www.google.com/#q=Central Waters 18 Anniversary Edition'
p1002
asS'Maui Brewing Double Overhead IPA'
p1003
(lp1004
g181
aF14.9
aF15.3
aS'https://www.google.com/#q=Maui Brewing Double Overhead IPA'
p1005
asS'Lazy Magnolia Gulf Porter'
p1006
(lp1007
g290
aF13.4
aF13.5
aS'https://www.google.com/#q=Lazy Magnolia Gulf Porter'
p1008
asS'Jester King Montmorency vs. Balaton'
p1009
(lp1010
g72
aF16.2
aF16.4
aS'https://www.google.com/#q=Jester King Montmorency vs. Balaton'
p1011
asS'Diamond Bear Strawberry Blonde'
p1012
(lp1013
g37
aF13.2
aF12.8
aS'https://www.google.com/#q=Diamond Bear Strawberry Blonde'
p1014
asS'Fargo Original Pale Lager'
p1015
(lp1016
g114
aF12.7
aF12.8
aS'https://www.google.com/#q=Fargo Original Pale Lager'
p1017
asS'Against the Grain / To l An Ale Pleasure'
p1018
(lp1019
g23
aF15.5
aF15.6
aS'https://www.google.com/#q=Against the Grain / To l An Ale Pleasure'
p1020
asS'Jackie Os Bourbon Barrel Oil Of Aphrodite'
p1021
(lp1022
g260
aF16.0
aF16.2
aS'https://www.google.com/#q=Jackie Os Bourbon Barrel Oil Of Aphrodite'
p1023
asS'Toppling Goliath Galaxy Dry Hopped pseudoSue'
p1024
(lp1025
g159
aF15.7
aF16.1
aS'https://www.google.com/#q=Toppling Goliath Galaxy Dry Hopped pseudoSue'
p1026
asS'Goose Island Bourbon County Stout - Rare 2015'
p1027
(lp1028
g274
aF16.7
aF16.9
aS'https://www.google.com/#q=Goose Island Bourbon County Stout - Rare 2015'
p1029
asS'Devils Backbone / Wicked Weed Seven Summits'
p1030
(lp1031
g379
aF15.8
aF15.9
aS'https://www.google.com/#q=Devils Backbone / Wicked Weed Seven Summits'
p1032
asS'Against the Grain The Green Dragon'
p1033
(lp1034
g23
aF14.9
aF15.0
aS'https://www.google.com/#q=Against the Grain The Green Dragon'
p1035
asS'Fargo Wood Chipper IPA'
p1036
(lp1037
g114
aF13.1
aF13.0
aS'https://www.google.com/#q=Fargo Wood Chipper IPA'
p1038
asS'Brash Biggie Smalls Imperial Brown Ale'
p1039
(lp1040
g72
aF15.7
aF16.0
aS'https://www.google.com/#q=Brash Biggie Smalls Imperial Brown Ale'
p1041
asS'Pointe of View Winery Sweet Honey Wine'
p1042
(lp1043
g114
aF11.0
aF11.2
aS'https://www.google.com/#q=Pointe of View Winery Sweet Honey Wine'
p1044
asS'Superstition Peanut Butter Jelly Crime'
p1045
(lp1046
g267
aF18.1
aF18.0
aS'https://www.google.com/#q=Superstition Peanut Butter Jelly Crime'
p1047
asS'Tree House Julius'
p1048
(lp1049
g151
aF16.7
aF16.9
aS'https://www.google.com/#q=Tree House Julius'
p1050
asS'Jester King Bire de Blanc du Bois'
p1051
(lp1052
g72
aF15.8
aF16.4
aS'https://www.google.com/#q=Jester King Bire de Blanc du Bois'
p1053
asS'Hair of the Dog Otto from the Wood'
p1054
(lp1055
g147
aF16.0
aF16.5
aS'https://www.google.com/#q=Hair of the Dog Otto from the Wood'
p1056
asS'Triple 7 Marker Pale Ale'
p1057
(lp1058
g27
aF13.8
aF13.9
aS'https://www.google.com/#q=Triple 7 Marker Pale Ale'
p1059
asS'Tree House Double Shot'
p1060
(lp1061
g151
aF16.4
aF16.5
aS'https://www.google.com/#q=Tree House Double Shot'
p1062
asS'Straight To Ale Gorillanaut Imperial IPA'
p1063
(lp1064
g306
aF15.0
aF15.3
aS'https://www.google.com/#q=Straight To Ale Gorillanaut Imperial IPA'
p1065
asS'SPB Cicada Series Hipster Breakfast'
p1066
(lp1067
g290
aF14.8
aF15.1
aS'https://www.google.com/#q=SPB Cicada Series Hipster Breakfast'
p1068
asS'Southern Tier Blackwater Series: Mokah'
p1069
(lp1070
g83
aF15.8
aF15.9
aS'https://www.google.com/#q=Southern Tier Blackwater Series: Mokah'
p1071
asS'Toppling Goliath Sosus'
p1072
(lp1073
g159
aF16.3
aF16.6
aS'https://www.google.com/#q=Toppling Goliath Sosus'
p1074
asS'Victory Storm King Imperial Stout'
p1075
(lp1076
g3
aF16.0
aF16.3
aS'https://www.google.com/#q=Victory Storm King Imperial Stout'
p1077
asS'Wrecking Bar Choco Mountain Imperial Breakfast Stout'
p1078
(lp1079
g347
aF16.5
aF16.6
aS'https://www.google.com/#q=Wrecking Bar Choco Mountain Imperial Breakfast Stout'
p1080
asS'AleSmith Speedway Stout - Vietnamese Coffee'
p1081
(lp1082
g15
aF16.9
aF17.1
aS'https://www.google.com/#q=AleSmith Speedway Stout - Vietnamese Coffee'
p1083
asS'Three Floyds Dark Lord Russian Imperial Stout (Bourbon Barrel Aged)'
p1084
(lp1085
g11
aF17.5
aF17.6
aS'https://www.google.com/#q=Three Floyds Dark Lord Russian Imperial Stout (Bourbon Barrel Aged)'
p1086
asS'Wicked Weed Angel of Darkness'
p1087
(lp1088
g99
aF16.1
aF16.3
aS'https://www.google.com/#q=Wicked Weed Angel of Darkness'
p1089
asS'Terrapin Wake-n-Bake Coffee Oatmeal Imperial Stout'
p1090
(lp1091
g347
aF15.7
aF15.9
aS'https://www.google.com/#q=Terrapin Wake-n-Bake Coffee Oatmeal Imperial Stout'
p1092
asS'Arizona Wilderness American Presidential Stout'
p1093
(lp1094
g267
aF16.3
aF16.3
aS'https://www.google.com/#q=Arizona Wilderness American Presidential Stout'
p1095
asS'Carton 077XX'
p1096
(lp1097
g398
aF15.1
aF15.3
aS'https://www.google.com/#q=Carton 077XX'
p1098
asS'Perennial Barrel Aged Abraxas'
p1099
(lp1100
g7
aF17.1
aF17.2
aS'https://www.google.com/#q=Perennial Barrel Aged Abraxas'
p1101
asS'New Glarus R & D Wild Peach'
p1102
(lp1103
g57
aF16.4
aF16.6
aS'https://www.google.com/#q=New Glarus R & D Wild Peach'
p1104
asS'Vinos Pinnacle IPA'
p1105
(lp1106
g37
aF13.2
aF13.1
aS'https://www.google.com/#q=Vinos Pinnacle IPA'
p1107
asS'Turtle Anarchy Another Way to Rye'
p1108
(lp1109
g64
aF14.4
aF14.8
aS'https://www.google.com/#q=Turtle Anarchy Another Way to Rye'
p1110
asS'Prairie Wine Barrel Noir'
p1111
(lp1112
g136
aF15.4
aF15.6
aS'https://www.google.com/#q=Prairie Wine Barrel Noir'
p1113
asS'Trillium Fort Point Pale Ale'
p1114
(lp1115
g151
aF16.3
aF16.5
aS'https://www.google.com/#q=Trillium Fort Point Pale Ale'
p1116
asS'Great Divide Yeti Imperial Stout - Barrel Aged'
p1117
(lp1118
g49
aF16.2
aF16.4
aS'https://www.google.com/#q=Great Divide Yeti Imperial Stout - Barrel Aged'
p1119
asS'Joseph James Barrel Smoker'
p1120
(lp1121
g27
aF15.0
aF15.3
aS'https://www.google.com/#q=Joseph James Barrel Smoker'
p1122
asS'Foothills Sexual Chocolate Imperial Stout'
p1123
(lp1124
g99
aF16.0
aF16.2
aS'https://www.google.com/#q=Foothills Sexual Chocolate Imperial Stout'
p1125
asS'Lucky Bucket Barrel Aged Kriek'
p1126
(lp1127
g95
aF15.0
aF15.2
aS'https://www.google.com/#q=Lucky Bucket Barrel Aged Kriek'
p1128
asS'Trillium Congress Street IPA - Double Dry Hopped'
p1129
(lp1130
g151
aF16.4
aF16.7
aS'https://www.google.com/#q=Trillium Congress Street IPA - Double Dry Hopped'
p1131
asS'Side Project One Candle'
p1132
(lp1133
g7
aF16.8
aF17.3
aS'https://www.google.com/#q=Side Project One Candle'
p1134
asS'Proclamation Derivative Citra Hopped Pale Ale'
p1135
(lp1136
g106
aF15.1
aF15.0
aS'https://www.google.com/#q=Proclamation Derivative Citra Hopped Pale Ale'
p1137
asS'Great Basin Outlaw Milk Stout'
p1138
(lp1139
g27
aF14.0
aF14.3
aS'https://www.google.com/#q=Great Basin Outlaw Milk Stout'
p1140
asS'Hoppin Frog Cafe BORIS'
p1141
(lp1142
g260
aF16.0
aF16.1
aS'https://www.google.com/#q=Hoppin Frog Cafe BORIS'
p1143
asS'Lost River Black Ale'
p1144
(lp1145
g41
aF13.2
aF13.2
aS'https://www.google.com/#q=Lost River Black Ale'
p1146
asS'Maine Beer Dinner'
p1147
(lp1148
g448
aF16.9
aF17.1
aS'https://www.google.com/#q=Maine Beer Dinner'
p1149
asS'Other Half Double Mosaic Dream'
p1150
(lp1151
g83
aF16.2
aF16.4
aS'https://www.google.com/#q=Other Half Double Mosaic Dream'
p1152
asS'Wicked Weed Montmaretto (Canvas Series)'
p1153
(lp1154
g99
aF15.5
aF15.8
aS'https://www.google.com/#q=Wicked Weed Montmaretto (Canvas Series)'
p1155
asS'Country Boy Papaws Red Ale'
p1156
(lp1157
g23
aF14.7
aF14.9
aS'https://www.google.com/#q=Country Boy Papaws Red Ale'
p1158
asS'Smuttynose Smuttlabs Shebang'
p1159
(lp1160
g241
aF15.1
aF15.1
aS'https://www.google.com/#q=Smuttynose Smuttlabs Shebang'
p1161
asS'J. Wakefield Dragonfruit Passion Fruit (DFPF) Berliner Weisse'
p1162
(lp1163
g155
aF17.0
aF17.2
aS'https://www.google.com/#q=J. Wakefield Dragonfruit Passion Fruit (DFPF) Berliner Weisse'
p1164
asS'Draught Works Scepter Head IPA'
p1165
(lp1166
g163
aF15.5
aF15.5
aS'https://www.google.com/#q=Draught Works Scepter Head IPA'
p1167
asS'Midnight Sun XXX Black Double IPA'
p1168
(lp1169
g313
aF15.1
aF15.4
aS'https://www.google.com/#q=Midnight Sun XXX Black Double IPA'
p1170
asS'Avery Barrel-Aged Series 36 - Callipygian'
p1171
(lp1172
g49
aF16.7
aF16.9
aS'https://www.google.com/#q=Avery Barrel-Aged Series 36 - Callipygian'
p1173
asS'Fitgers Edmund Imperial Stout (Bourbon Barrel)'
p1174
(lp1175
g87
aF15.7
aF15.9
aS'https://www.google.com/#q=Fitgers Edmund Imperial Stout (Bourbon Barrel)'
p1176
asS'New England Galaxy Pale Ale'
p1177
(lp1178
g45
aF15.6
aF15.9
aS'https://www.google.com/#q=New England Galaxy Pale Ale'
p1179
asS'Grand Teton 5 OClock Shadow'
p1180
(lp1181
g170
aF14.8
aF14.9
aS'https://www.google.com/#q=Grand Teton 5 OClock Shadow'
p1182
asS'Hardywood Christmas Morning'
p1183
(lp1184
g379
aF16.1
aF16.2
aS'https://www.google.com/#q=Hardywood Christmas Morning'
p1185
asS'DuClaw Oak Aged Black Jack Stout'
p1186
(lp1187
g417
aF15.5
aF15.7
aS'https://www.google.com/#q=DuClaw Oak Aged Black Jack Stout'
p1188
asS'Blackberry Farm Summer Saison'
p1189
(lp1190
g64
aF15.4
aF15.7
aS'https://www.google.com/#q=Blackberry Farm Summer Saison'
p1191
asS'Nebraska Reserve Series Barrel Aged Fathead'
p1192
(lp1193
g95
aF14.9
aF15.0
aS'https://www.google.com/#q=Nebraska Reserve Series Barrel Aged Fathead'
p1194
asS'Wicked Weed Golden Angel'
p1195
(lp1196
g99
aF16.0
aF16.3
aS'https://www.google.com/#q=Wicked Weed Golden Angel'
p1197
asS'Logsdon Peche n Brett'
p1198
(lp1199
g147
aF16.2
aF16.5
aS'https://www.google.com/#q=Logsdon Peche n Brett'
p1200
asS'Superstition Marion Mead - Sparkling'
p1201
(lp1202
g267
aF16.3
aF16.5
aS'https://www.google.com/#q=Superstition Marion Mead - Sparkling'
p1203
asS'Willimantic Address Unknown IPA'
p1204
(lp1205
g45
aF16.1
aF16.4
aS'https://www.google.com/#q=Willimantic Address Unknown IPA'
p1206
asS'Hoppin Frog Barrel Aged BORIS The Crusher'
p1207
(lp1208
g260
aF16.5
aF16.7
aS'https://www.google.com/#q=Hoppin Frog Barrel Aged BORIS The Crusher'
p1209
asS'Evil Twin Pappys Imperial Biscotti Break'
p1210
(lp1211
g83
aF16.9
aF17.1
aS'https://www.google.com/#q=Evil Twin Pappys Imperial Biscotti Break'
p1212
asS'Peace Tree No Coast IPA'
p1213
(lp1214
g159
aF15.3
aF15.7
aS'https://www.google.com/#q=Peace Tree No Coast IPA'
p1215
asS'Grey Sail Pour Judgement IPA'
p1216
(lp1217
g106
aF14.1
aF14.6
aS'https://www.google.com/#q=Grey Sail Pour Judgement IPA'
p1218
asS'Superstition Aphrodisia Pyment - Cabernet/Pinot Noir/Syrah'
p1219
(lp1220
g267
aF16.3
aF16.6
aS'https://www.google.com/#q=Superstition Aphrodisia Pyment - Cabernet/Pinot Noir/Syrah'
p1221
asS'Schramms Raspberry'
p1222
(lp1223
g19
aF16.4
aF16.6
aS'https://www.google.com/#q=Schramms Raspberry'
p1224
asS'Marble India Pale Ale'
p1225
(lp1226
g143
aF14.7
aF14.9
aS'https://www.google.com/#q=Marble India Pale Ale'
p1227
asS'Hoppin Frog Rocky Mountain BORIS'
p1228
(lp1229
g260
aF16.5
aF16.6
aS'https://www.google.com/#q=Hoppin Frog Rocky Mountain BORIS'
p1230
asS'Toppling Goliath Thresher IPA'
p1231
(lp1232
g159
aF15.4
aF15.4
aS'https://www.google.com/#q=Toppling Goliath Thresher IPA'
p1233
asS'Hardywood Kentucky Christmas Morning'
p1234
(lp1235
g379
aF16.1
aF16.4
aS'https://www.google.com/#q=Hardywood Kentucky Christmas Morning'
p1236
asS'Walking Man Jaywalker Russian Imperial Stout'
p1237
(lp1238
g231
aF16.3
aF16.5
aS'https://www.google.com/#q=Walking Man Jaywalker Russian Imperial Stout'
p1239
asS'Good People Coffee Oatmeal Stout'
p1240
(lp1241
g306
aF14.4
aF14.3
aS'https://www.google.com/#q=Good People Coffee Oatmeal Stout'
p1242
asS'Side Project Blanc de Blancs'
p1243
(lp1244
g7
aF16.3
aF16.7
aS'https://www.google.com/#q=Side Project Blanc de Blancs'
p1245
asS'Cigar City Hunahpus Imperial Stout - Double Barrel Aged'
p1246
(lp1247
g155
aF17.7
aF17.8
aS'https://www.google.com/#q=Cigar City Hunahpus Imperial Stout - Double Barrel Aged'
p1248
asS'Stoneface RIS - Bourbon Barrel Aged'
p1249
(lp1250
g241
aF16.4
aF16.5
aS'https://www.google.com/#q=Stoneface RIS - Bourbon Barrel Aged'
p1251
asS'Wrecking Bar Mexican Siberius Maximus Russian Imperial Stout'
p1252
(lp1253
g347
aF17.2
aF17.4
aS'https://www.google.com/#q=Wrecking Bar Mexican Siberius Maximus Russian Imperial Stout'
p1254
asS'SPB Cicada Series Suzy Smash'
p1255
(lp1256
g290
aF13.7
aF14.0
aS'https://www.google.com/#q=SPB Cicada Series Suzy Smash'
p1257
asS'Proclamation Derivative Mosaic Hopped Pale Ale'
p1258
(lp1259
g106
aF15.6
aF16.2
aS'https://www.google.com/#q=Proclamation Derivative Mosaic Hopped Pale Ale'
p1260
asS'Westbrook Mexican Cake Imperial Stout - Bourbon Barrel (2014)'
p1261
(lp1262
g76
aF16.6
aF16.9
aS'https://www.google.com/#q=Westbrook Mexican Cake Imperial Stout - Bourbon Barrel (2014)'
p1263
asS'Blue Pants Pinstripe Candy Bar Stout'
p1264
(lp1265
g306
aF14.8
aF14.9
aS'https://www.google.com/#q=Blue Pants Pinstripe Candy Bar Stout'
p1266
asS'Oskar Blues Ten FIDY - Barrel Aged'
p1267
(lp1268
g49
aF16.6
aF16.8
aS'https://www.google.com/#q=Oskar Blues Ten FIDY - Barrel Aged'
p1269
asS'Oskar Blues Ten FIDY - Stranahans Colorado Whiskey Barrel'
p1270
(lp1271
g49
aF16.3
aF16.5
aS'https://www.google.com/#q=Oskar Blues Ten FIDY - Stranahans Colorado Whiskey Barrel'
p1272
asS'Lift Bridge Silhouette Bourbon Barrel Aged Russian Imperial Stout'
p1273
(lp1274
g87
aF15.9
aF16.2
aS'https://www.google.com/#q=Lift Bridge Silhouette Bourbon Barrel Aged Russian Imperial Stout'
p1275
asS'Midnight Sun 2007 Deadly Sins: Sloth'
p1276
(lp1277
g313
aF16.6
aF16.8
aS'https://www.google.com/#q=Midnight Sun 2007 Deadly Sins: Sloth'
p1278
asS'Lazy Magnolia Ginger Jaque'
p1279
(lp1280
g290
aF13.8
aF14.1
aS'https://www.google.com/#q=Lazy Magnolia Ginger Jaque'
p1281
asS'Schell Noble Star - Starkeller Peach'
p1282
(lp1283
g87
aF15.8
aF16.3
aS'https://www.google.com/#q=Schell Noble Star - Starkeller Peach'
p1284
asS'Union Station Half Day IPA'
p1285
(lp1286
g106
aF14.7
aF14.8
aS'https://www.google.com/#q=Union Station Half Day IPA'
p1287
asS'Hoppin Frog Barrel Aged DORIS The Destroyer'
p1288
(lp1289
g260
aF16.4
aF16.6
aS'https://www.google.com/#q=Hoppin Frog Barrel Aged DORIS The Destroyer'
p1290
asS'Chestnut Brew Works Halleck Pale Ale'
p1291
(lp1292
g41
aF15.0
aF15.4
aS'https://www.google.com/#q=Chestnut Brew Works Halleck Pale Ale'
p1293
asS'Free State Cloud Hopper Imperial IPA'
p1294
(lp1295
g53
aF15.4
aF15.5
aS'https://www.google.com/#q=Free State Cloud Hopper Imperial IPA'
p1296
asS'New England G-Bot Double IPA'
p1297
(lp1298
g45
aF15.5
aF15.8
aS'https://www.google.com/#q=New England G-Bot Double IPA'
p1299
asS'Westbrook Comrade Appleseed'
p1300
(lp1301
g76
aF16.0
aF16.0
aS'https://www.google.com/#q=Westbrook Comrade Appleseed'
p1302
asS'Avery Mephistopheles Stout'
p1303
(lp1304
g49
aF15.9
aF16.1
aS'https://www.google.com/#q=Avery Mephistopheles Stout'
p1305
asS'Grand Teton Wake Up Call Imperial Coffee Porter'
p1306
(lp1307
g170
aF14.4
aF14.4
aS'https://www.google.com/#q=Grand Teton Wake Up Call Imperial Coffee Porter'
p1308
asS'Freedoms Edge High Noon Chili Pepper Ale'
p1309
(lp1310
g68
aF13.7
aF14.0
aS'https://www.google.com/#q=Freedoms Edge High Noon Chili Pepper Ale'
p1311
asS'Evil Twin Imperial Biscotti Break'
p1312
(lp1313
g83
aF16.4
aF16.5
aS'https://www.google.com/#q=Evil Twin Imperial Biscotti Break'
p1314
asS'Bullfrog Le Roar Grrrz'
p1315
(lp1316
g3
aF16.1
aF16.4
aS'https://www.google.com/#q=Bullfrog Le Roar Grrrz'
p1317
asS'Bridge Brew Works The Dun Glen Dubbel'
p1318
(lp1319
g41
aF13.9
aF14.0
aS'https://www.google.com/#q=Bridge Brew Works The Dun Glen Dubbel'
p1320
asS'SPB Lazarus'
p1321
(lp1322
g290
aF13.2
aF12.9
aS'https://www.google.com/#q=SPB Lazarus'
p1323
asS'La Cumbre Father Nelson'
p1324
(lp1325
g143
aF16.2
aF16.3
aS'https://www.google.com/#q=La Cumbre Father Nelson'
p1326
asS'New England Locust Reign'
p1327
(lp1328
g45
aF16.0
aF15.9
aS'https://www.google.com/#q=New England Locust Reign'
p1329
asS'Greenbrier Valley Wild Trail Pale Ale'
p1330
(lp1331
g41
aF13.3
aF13.3
aS'https://www.google.com/#q=Greenbrier Valley Wild Trail Pale Ale'
p1332
asS'Quaff Bros Full Allotment'
p1333
(lp1334
g23
aF16.2
aF16.4
aS'https://www.google.com/#q=Quaff Bros Full Allotment'
p1335
asS'Midnight Sun T.R.E.A.T. Imperial Chocolate Pumpkin Porter'
p1336
(lp1337
g313
aF15.4
aF15.6
aS'https://www.google.com/#q=Midnight Sun T.R.E.A.T. Imperial Chocolate Pumpkin Porter'
p1338
asS'Dogfish Head 90 Minute Imperial IPA'
p1339
(lp1340
g366
aF16.2
aF16.6
aS'https://www.google.com/#q=Dogfish Head 90 Minute Imperial IPA'
p1341
asS'Casey Dry Hopped Oak Theory - Galaxy & Simcoe'
p1342
(lp1343
g49
aF16.3
aF16.7
aS'https://www.google.com/#q=Casey Dry Hopped Oak Theory - Galaxy & Simcoe'
p1344
asS'Greenbrier Valley Devil Anse IPA'
p1345
(lp1346
g41
aF14.0
aF14.2
aS'https://www.google.com/#q=Greenbrier Valley Devil Anse IPA'
p1347
asS'Laughing Sun Black Shox Porter'
p1348
(lp1349
g114
aF13.7
aF13.7
aS'https://www.google.com/#q=Laughing Sun Black Shox Porter'
p1350
asS'Bluejacket / Brooklyn / New Belgium Rheinard de Vos'
p1351
(lp1352
g174
aF15.2
aF15.5
aS'https://www.google.com/#q=Bluejacket / Brooklyn / New Belgium Rheinard de Vos'
p1353
asS'Founders Bourbon Barrel Imperial Stout'
p1354
(lp1355
g19
aF17.0
aF17.1
aS'https://www.google.com/#q=Founders Bourbon Barrel Imperial Stout'
p1356
asS'Big Dogs Dirty Dog IPA'
p1357
(lp1358
g27
aF13.9
aF14.3
aS'https://www.google.com/#q=Big Dogs Dirty Dog IPA'
p1359
asS'Kane Hop Lab #9 - Citra Pale Ale'
p1360
(lp1361
g398
aF15.8
aF15.9
aS'https://www.google.com/#q=Kane Hop Lab #9 - Citra Pale Ale'
p1362
asS'Community Barrel Aged Legion'
p1363
(lp1364
g72
aF15.9
aF16.1
aS'https://www.google.com/#q=Community Barrel Aged Legion'
p1365
asS'Three Floyds Zombie Dust'
p1366
(lp1367
g11
aF16.6
aF16.9
aS'https://www.google.com/#q=Three Floyds Zombie Dust'
p1368
asS'Santa Fe Wild Ale #6 (Bordeaux Series)'
p1369
(lp1370
g143
aF15.0
aF15.4
aS'https://www.google.com/#q=Santa Fe Wild Ale #6 (Bordeaux Series)'
p1371
asS'Mothers MILF'
p1372
(lp1373
g7
aF16.2
aF16.5
aS'https://www.google.com/#q=Mothers MILF'
p1374
asS'Hair of the Dog Adam'
p1375
(lp1376
g147
aF16.4
aF16.7
aS'https://www.google.com/#q=Hair of the Dog Adam'
p1377
asS'Wind River Wyoming Pale Ale (WPA)'
p1378
(lp1379
g68
aF14.0
aF14.0
aS'https://www.google.com/#q=Wind River Wyoming Pale Ale (WPA)'
p1380
asS'Surly Four'
p1381
(lp1382
g87
aF16.0
aF16.2
aS'https://www.google.com/#q=Surly Four'
p1383
asS'New Glarus Thumbprint Series Scream IIPA'
p1384
(lp1385
g57
aF15.6
aF15.7
aS'https://www.google.com/#q=New Glarus Thumbprint Series Scream IIPA'
p1386
asS'AleSmith Speedway Stout - Brewers Blend: Vietnamese Coffee'
p1387
(lp1388
g15
aF17.3
aF17.7
aS'https://www.google.com/#q=AleSmith Speedway Stout - Brewers Blend: Vietnamese Coffee'
p1389
asS'Big Island Overboard IPA'
p1390
(lp1391
g181
aF14.9
aF15.0
aS'https://www.google.com/#q=Big Island Overboard IPA'
p1392
asS'Free State Ironman Imperial Stout'
p1393
(lp1394
g53
aF14.7
aF14.9
aS'https://www.google.com/#q=Free State Ironman Imperial Stout'
p1395
asS'Jackie Os Bourbon Barrel Oro Negro'
p1396
(lp1397
g260
aF16.8
aF17.1
aS'https://www.google.com/#q=Jackie Os Bourbon Barrel Oro Negro'
p1398
asS'Big Sky IPA'
p1399
(lp1400
g163
aF14.2
aF14.4
aS'https://www.google.com/#q=Big Sky IPA'
p1401
asS'Superstition Aphrodisia Pyment - Syrah/Grenache'
p1402
(lp1403
g267
aF16.9
aF17.0
aS'https://www.google.com/#q=Superstition Aphrodisia Pyment - Syrah/Grenache'
p1404
asS'Heavy Seas Uncharted Waters: Siren Noire (2013 -)'
p1405
(lp1406
g417
aF15.4
aF15.5
aS'https://www.google.com/#q=Heavy Seas Uncharted Waters: Siren Noire (2013 -)'
p1407
asS'Alchemist Heady Topper'
p1408
(lp1409
g188
aF17.1
aF17.4
aS'https://www.google.com/#q=Alchemist Heady Topper'
p1410
asS'Nebraska Inception Series Franc Blanc'
p1411
(lp1412
g95
aF14.7
aF15.2
aS'https://www.google.com/#q=Nebraska Inception Series Franc Blanc'
p1413
asS'Sick N Twisted Panty Droppin Porter'
p1414
(lp1415
g110
aF13.7
aF13.7
aS'https://www.google.com/#q=Sick N Twisted Panty Droppin Porter'
p1416
asS'Iron Hill Russian Imperial Stout'
p1417
(lp1418
g366
aF15.7
aF15.9
aS'https://www.google.com/#q=Iron Hill Russian Imperial Stout'
p1419
asS'Morgantown Zack Morgans IPA'
p1420
(lp1421
g41
aF13.2
aF13.3
aS'https://www.google.com/#q=Morgantown Zack Morgans IPA'
p1422
asS'Good People El Gordo Imperial Stout'
p1423
(lp1424
g306
aF16.5
aF16.7
aS'https://www.google.com/#q=Good People El Gordo Imperial Stout'
p1425
asS'Side Project Fuzzy'
p1426
(lp1427
g7
aF16.3
aF16.7
aS'https://www.google.com/#q=Side Project Fuzzy'
p1428
asS'Midnight Sun Arctic Devil'
p1429
(lp1430
g313
aF16.1
aF16.4
aS'https://www.google.com/#q=Midnight Sun Arctic Devil'
p1431
asS'Fargo Stones Throw Scottish Ale'
p1432
(lp1433
g114
aF11.8
aF11.7
aS'https://www.google.com/#q=Fargo Stones Throw Scottish Ale'
p1434
asS'New Glarus Thumbprint Series Cran-bic Ale'
p1435
(lp1436
g57
aF15.5
aF15.8
aS'https://www.google.com/#q=New Glarus Thumbprint Series Cran-bic Ale'
p1437
asS'Proclamation Zzzlumber - Barrel-Aged'
p1438
(lp1439
g106
aF14.7
aF15.2
aS'https://www.google.com/#q=Proclamation Zzzlumber - Barrel-Aged'
p1440
asS'Epic Imperial Red Ale'
p1441
(lp1442
g461
aF14.7
aF14.9
aS'https://www.google.com/#q=Epic Imperial Red Ale'
p1443
asS'Toppling Goliath XHops Series - Green'
p1444
(lp1445
g159
aF15.1
aF15.1
aS'https://www.google.com/#q=Toppling Goliath XHops Series - Green'
p1446
asS'Stone Imperial Russian Stout - Bourbon Barrel'
p1447
(lp1448
g15
aF16.9
aF17.1
aS'https://www.google.com/#q=Stone Imperial Russian Stout - Bourbon Barrel'
p1449
asS'Boulevard Smokestack Series: Saison-Brett'
p1450
(lp1451
g7
aF15.8
aF16.0
aS'https://www.google.com/#q=Boulevard Smokestack Series: Saison-Brett'
p1452
asS'Pointe of View Winery H2BC'
p1453
(lp1454
g114
aF11.5
aF11.5
aS'https://www.google.com/#q=Pointe of View Winery H2BC'
p1455
asS'Elysian Dragonstooth Stout'
p1456
(lp1457
g231
aF15.3
aF15.4
aS'https://www.google.com/#q=Elysian Dragonstooth Stout'
p1458
asS'Smuttynose Big Beer Series: Rocky Road Stout'
p1459
(lp1460
g241
aF15.0
aF15.1
aS'https://www.google.com/#q=Smuttynose Big Beer Series: Rocky Road Stout'
p1461
asS'Evil Twin Even More Jesus'
p1462
(lp1463
g83
aF16.4
aF16.5
aS'https://www.google.com/#q=Evil Twin Even More Jesus'
p1464
asS'Lost Abbey Cable Car'
p1465
(lp1466
g15
aF16.7
aF17.1
aS'https://www.google.com/#q=Lost Abbey Cable Car'
p1467
asS'Avondale Barrel Aged Brett Saison'
p1468
(lp1469
g306
aF16.4
aF16.8
aS'https://www.google.com/#q=Avondale Barrel Aged Brett Saison'
p1470
asS'Avery The Maharaja Imperial India Pale Ale'
p1471
(lp1472
g49
aF15.9
aF16.2
aS'https://www.google.com/#q=Avery The Maharaja Imperial India Pale Ale'
p1473
asS'Sockeye Big Creek Trappist'
p1474
(lp1475
g170
aF15.8
aF15.6
aS'https://www.google.com/#q=Sockeye Big Creek Trappist'
p1476
asS'OEC Experimentalis with Peaches (Pedro Ximenez Barrel)'
p1477
(lp1478
g45
aF15.6
aF15.7
aS'https://www.google.com/#q=OEC Experimentalis with Peaches (Pedro Ximenez Barrel)'
p1479
asS'Bluejacket Wary Fiend'
p1480
(lp1481
g174
aF14.9
aF15.4
aS'https://www.google.com/#q=Bluejacket Wary Fiend'
p1482
asS'Wicked Weed Ruffian Imperial Black IPA'
p1483
(lp1484
g99
aF16.1
aF16.2
aS'https://www.google.com/#q=Wicked Weed Ruffian Imperial Black IPA'
p1485
asS'Great Basin Hop Head Ale'
p1486
(lp1487
g27
aF15.3
aF15.9
aS'https://www.google.com/#q=Great Basin Hop Head Ale'
p1488
asS'Tired Hands Virgins & Diamonds'
p1489
(lp1490
g3
aF16.2
aF16.5
aS'https://www.google.com/#q=Tired Hands Virgins & Diamonds'
p1491
asS'Flying Dog Brewhouse Rarities: Smoked Belgian Stout'
p1492
(lp1493
g417
aF15.3
aF15.2
aS'https://www.google.com/#q=Flying Dog Brewhouse Rarities: Smoked Belgian Stout'
p1494
asS'Melvin Asterisk Double IPA'
p1495
(lp1496
g68
aF15.7
aF15.9
aS'https://www.google.com/#q=Melvin Asterisk Double IPA'
p1497
asS'Bluegrass Russian Imperial Porter'
p1498
(lp1499
g23
aF14.5
aF14.7
aS'https://www.google.com/#q=Bluegrass Russian Imperial Porter'
p1500
asS'Firehouse Smoke Jumper Stout'
p1501
(lp1502
g110
aF13.6
aF13.6
aS'https://www.google.com/#q=Firehouse Smoke Jumper Stout'
p1503
asS'Snake River Danimals Farmhouse Saison'
p1504
(lp1505
g68
aF14.6
aF14.8
aS'https://www.google.com/#q=Snake River Danimals Farmhouse Saison'
p1506
asS'Payette 12 Gauge Imperial Stout - Barrel Aged'
p1507
(lp1508
g170
aF15.4
aF15.4
aS'https://www.google.com/#q=Payette 12 Gauge Imperial Stout - Barrel Aged'
p1509
asS'Westbrook Mexican Cake Imperial Stout - Red Wine Barrel'
p1510
(lp1511
g76
aF16.9
aF17.2
aS'https://www.google.com/#q=Westbrook Mexican Cake Imperial Stout - Red Wine Barrel'
p1512
asS'Abita Bourbon Street Barrel Aged Imperial Stout'
p1513
(lp1514
g91
aF14.6
aF14.9
aS'https://www.google.com/#q=Abita Bourbon Street Barrel Aged Imperial Stout'
p1515
asS'Cycle RareR DOS'
p1516
(lp1517
g155
aF16.7
aF16.8
aS'https://www.google.com/#q=Cycle RareR DOS'
p1518
asS'Chama River Dangerous Intensions'
p1519
(lp1520
g143
aF15.3
aF15.4
aS'https://www.google.com/#q=Chama River Dangerous Intensions'
p1521
asS'SPB Devils Harvest American Pale Ale (Redux) (2016 - )'
p1522
(lp1523
g290
aF13.7
aF13.8
aS'https://www.google.com/#q=SPB Devils Harvest American Pale Ale (Redux) (2016 - )'
p1524
asS'Dogfish Head 75 Minute IPA (Cask/Bottle)'
p1525
(lp1526
g366
aF15.2
aF15.5
aS'https://www.google.com/#q=Dogfish Head 75 Minute IPA (Cask/Bottle)'
p1527
asS'Prairie Funky Gold Amarillo'
p1528
(lp1529
g136
aF15.3
aF15.5
aS'https://www.google.com/#q=Prairie Funky Gold Amarillo'
p1530
asS'New Glarus Wisconsin Belgian Red'
p1531
(lp1532
g57
aF16.6
aF16.8
aS'https://www.google.com/#q=New Glarus Wisconsin Belgian Red'
p1533
asS'Melvin Clinic ISA'
p1534
(lp1535
g68
aF14.4
aF14.8
aS'https://www.google.com/#q=Melvin Clinic ISA'
p1536
asS'Wicked Weed Mnage-a-Freak'
p1537
(lp1538
g99
aF16.1
aF16.3
aS'https://www.google.com/#q=Wicked Weed Mnage-a-Freak'
p1539
asS'Hair of the Dog Cherry Adam from the Wood'
p1540
(lp1541
g147
aF16.1
aF16.5
aS'https://www.google.com/#q=Hair of the Dog Cherry Adam from the Wood'
p1542
asS'Russian River Consecration'
p1543
(lp1544
g15
aF16.6
aF17.0
aS'https://www.google.com/#q=Russian River Consecration'
p1545
asS'Toppling Goliath pseudoSue'
p1546
(lp1547
g159
aF16.3
aF16.5
aS'https://www.google.com/#q=Toppling Goliath pseudoSue'
p1548
asS'Moonlight Meadery Kurts Apple Pie'
p1549
(lp1550
g241
aF15.5
aF15.8
aS'https://www.google.com/#q=Moonlight Meadery Kurts Apple Pie'
p1551
asS'Against the Grain / De Molen Bo & Luke'
p1552
(lp1553
g23
aF16.1
aF16.4
aS'https://www.google.com/#q=Against the Grain / De Molen Bo & Luke'
p1554
asS'Dogfish Head Olde School Barleywine'
p1555
(lp1556
g366
aF15.0
aF15.4
aS'https://www.google.com/#q=Dogfish Head Olde School Barleywine'
p1557
asS'Saint James Plum Lambic'
p1558
(lp1559
g27
aF15.0
aF15.6
aS'https://www.google.com/#q=Saint James Plum Lambic'
p1560
asS'Mountain Dragon Tulip Poplar Honey Mead'
p1561
(lp1562
g41
aF13.4
aF13.4
aS'https://www.google.com/#q=Mountain Dragon Tulip Poplar Honey Mead'
p1563
asS'Pointe of View Winery Viking Deed'
p1564
(lp1565
g114
aF13.9
aF14.2
aS'https://www.google.com/#q=Pointe of View Winery Viking Deed'
p1566
asS'Squatters 529'
p1567
(lp1568
g461
aF15.2
aF15.6
aS'https://www.google.com/#q=Squatters 529'
p1569
asS'New Glarus Serendipity'
p1570
(lp1571
g57
aF16.3
aF16.6
aS'https://www.google.com/#q=New Glarus Serendipity'
p1572
asS'Yellowstone Valley Numbskull IPA'
p1573
(lp1574
g163
aF14.6
aF14.9
aS'https://www.google.com/#q=Yellowstone Valley Numbskull IPA'
p1575
asS'Three Floyds Dark Lord Russian Imperial Stout (Cognac Coffee)'
p1576
(lp1577
g11
aF16.7
aF17.1
aS'https://www.google.com/#q=Three Floyds Dark Lord Russian Imperial Stout (Cognac Coffee)'
p1578
asS'Epic Hopulent IPA'
p1579
(lp1580
g461
aF14.9
aF15.1
aS'https://www.google.com/#q=Epic Hopulent IPA'
p1581
asS'Epic Son of a Baptist'
p1582
(lp1583
g461
aF15.4
aF15.5
aS'https://www.google.com/#q=Epic Son of a Baptist'
p1584
asS'Midnight Sun 2010 Pop Ten: Barfly'
p1585
(lp1586
g313
aF16.3
aF16.5
aS'https://www.google.com/#q=Midnight Sun 2010 Pop Ten: Barfly'
p1587
asS'Vinos Octoberfest'
p1588
(lp1589
g37
aF12.9
aF13.0
aS'https://www.google.com/#q=Vinos Octoberfest'
p1590
asS'Olde Hickory The Event Horizon'
p1591
(lp1592
g99
aF16.3
aF16.5
aS'https://www.google.com/#q=Olde Hickory The Event Horizon'
p1593
asS'Nebraska Inception Series Ardent Son'
p1594
(lp1595
g95
aF14.8
aF15.2
aS'https://www.google.com/#q=Nebraska Inception Series Ardent Son'
p1596
asS'NOLA Sauvage'
p1597
(lp1598
g91
aF15.0
aF15.1
aS'https://www.google.com/#q=NOLA Sauvage'
p1599
asS'Perennial Blue Label Maman - Evan Williams 23'
p1600
(lp1601
g7
aF16.5
aF16.6
aS'https://www.google.com/#q=Perennial Blue Label Maman - Evan Williams 23'
p1602
asS'Anthem Pappy Burleson'
p1603
(lp1604
g136
aF16.6
aF16.9
aS'https://www.google.com/#q=Anthem Pappy Burleson'
p1605
asS'Three Floyds Alpha King'
p1606
(lp1607
g11
aF16.1
aF16.4
aS'https://www.google.com/#q=Three Floyds Alpha King'
p1608
asS'Half Acre Galactic Double Daisy Cutter'
p1609
(lp1610
g274
aF16.0
aF16.3
aS'https://www.google.com/#q=Half Acre Galactic Double Daisy Cutter'
p1611
asS'Cycle Pallet 2'
p1612
(lp1613
g155
aF16.7
aF16.9
aS'https://www.google.com/#q=Cycle Pallet 2'
p1614
asS'Cycle Barrel-Aged Hazelnut Imperial Stout'
p1615
(lp1616
g155
aF17.3
aF17.3
aS'https://www.google.com/#q=Cycle Barrel-Aged Hazelnut Imperial Stout'
p1617
asS'Black Raven Wisdom Seeker Double IPA'
p1618
(lp1619
g231
aF15.8
aF16.1
aS'https://www.google.com/#q=Black Raven Wisdom Seeker Double IPA'
p1620
asS'Urban Family Lady of the Night'
p1621
(lp1622
g231
aF15.5
aF15.9
aS'https://www.google.com/#q=Urban Family Lady of the Night'
p1623
asS'Atlas Brew Works NSFW'
p1624
(lp1625
g174
aF15.1
aF15.0
aS'https://www.google.com/#q=Atlas Brew Works NSFW'
p1626
asS'Brash Cortado'
p1627
(lp1628
g72
aF16.2
aF16.3
aS'https://www.google.com/#q=Brash Cortado'
p1629
asS'Marble Imperial Stout'
p1630
(lp1631
g143
aF15.6
aF15.9
aS'https://www.google.com/#q=Marble Imperial Stout'
p1632
asS'Straight To Ale Laika Russian Imperial Stout - Bourbon Barrel Aged'
p1633
(lp1634
g306
aF15.2
aF15.4
aS'https://www.google.com/#q=Straight To Ale Laika Russian Imperial Stout - Bourbon Barrel Aged'
p1635
asS'Pointe of View Winery Apple Wine'
p1636
(lp1637
g114
aF13.2
aF13.5
aS'https://www.google.com/#q=Pointe of View Winery Apple Wine'
p1638
asS'Maine Beer Another One'
p1639
(lp1640
g448
aF16.1
aF16.3
aS'https://www.google.com/#q=Maine Beer Another One'
p1641
asS'Firehouse Prodigy Porter'
p1642
(lp1643
g110
aF14.3
aF14.3
aS'https://www.google.com/#q=Firehouse Prodigy Porter'
p1644
asS'Stillwater Give-Way'
p1645
(lp1646
g417
aF15.8
aF16.0
aS'https://www.google.com/#q=Stillwater Give-Way'
p1647
asS'De Garde The Peach'
p1648
(lp1649
g147
aF16.9
aF17.1
aS'https://www.google.com/#q=De Garde The Peach'
p1650
asS'Revolution Barrel Aged Institutionalized Barley Wine'
p1651
(lp1652
g274
aF15.8
aF16.0
aS'https://www.google.com/#q=Revolution Barrel Aged Institutionalized Barley Wine'
p1653
asS'Sweetwater Bourbon Barrel Aged Imperial Stout'
p1654
(lp1655
g347
aF15.6
aF15.9
aS'https://www.google.com/#q=Sweetwater Bourbon Barrel Aged Imperial Stout'
p1656
asS'Fairhope (Take The) Causeway IPA'
p1657
(lp1658
g306
aF14.5
aF14.9
aS'https://www.google.com/#q=Fairhope (Take The) Causeway IPA'
p1659
asS'Maine Beer Lunch'
p1660
(lp1661
g448
aF16.2
aF16.3
aS'https://www.google.com/#q=Maine Beer Lunch'
p1662
asS'Big Timber Porter'
p1663
(lp1664
g41
aF14.5
aF14.7
aS'https://www.google.com/#q=Big Timber Porter'
p1665
asS'Hoppin Frog BORIS The Crusher'
p1666
(lp1667
g260
aF16.4
aF16.6
aS'https://www.google.com/#q=Hoppin Frog BORIS The Crusher'
p1668
asS'Austin Beerworks Heavy Machinery IPA Series #2: Double IPA'
p1669
(lp1670
g72
aF15.7
aF16.0
aS'https://www.google.com/#q=Austin Beerworks Heavy Machinery IPA Series #2: Double IPA'
p1671
asS'Free State Stormwatch Dark Ale'
p1672
(lp1673
g53
aF14.6
aF15.1
aS'https://www.google.com/#q=Free State Stormwatch Dark Ale'
p1674
asS'Midnight Sun 2009 Crew Brews: Brewtality'
p1675
(lp1676
g313
aF15.2
aF15.5
aS'https://www.google.com/#q=Midnight Sun 2009 Crew Brews: Brewtality'
p1677
asS'Nebraska Little Betty Russian Imperial Stout'
p1678
(lp1679
g95
aF14.9
aF14.9
aS'https://www.google.com/#q=Nebraska Little Betty Russian Imperial Stout'
p1680
asS'Three Floyds Rye Da Tiger'
p1681
(lp1682
g11
aF15.9
aF16.2
aS'https://www.google.com/#q=Three Floyds Rye Da Tiger'
p1683
asS'Maine Beer Weez'
p1684
(lp1685
g448
aF15.5
aF15.6
aS'https://www.google.com/#q=Maine Beer Weez'
p1686
asS'Block 15 Turbulent Consequence: Pche'
p1687
(lp1688
g147
aF16.4
aF16.8
aS'https://www.google.com/#q=Block 15 Turbulent Consequence: Pche'
p1689
asS'Melvin Killer Bees'
p1690
(lp1691
g68
aF13.7
aF13.6
aS'https://www.google.com/#q=Melvin Killer Bees'
p1692
asS'Chandeleur Lil Smack IPA'
p1693
(lp1694
g290
aF13.8
aF13.7
aS'https://www.google.com/#q=Chandeleur Lil Smack IPA'
p1695
asS'Crow Peak Redwater Ale'
p1696
(lp1697
g110
aF13.0
aF13.3
aS'https://www.google.com/#q=Crow Peak Redwater Ale'
p1698
asS'Alba Vineyard Forbidden'
p1699
(lp1700
g398
aF15.7
aF15.9
aS'https://www.google.com/#q=Alba Vineyard Forbidden'
p1701
asS'Epic / DC Brau Brainless: Corruption'
p1702
(lp1703
g461
aF15.0
aF15.1
aS'https://www.google.com/#q=Epic / DC Brau Brainless: Corruption'
p1704
asS'NOLA Girl Stout Cookie'
p1705
(lp1706
g91
aF15.2
aF15.3
aS'https://www.google.com/#q=NOLA Girl Stout Cookie'
p1707
asS'Toppling Goliath Xhops Series - Gamma'
p1708
(lp1709
g159
aF15.0
aF15.3
aS'https://www.google.com/#q=Toppling Goliath Xhops Series - Gamma'
p1710
asS'Toppling Goliath / Tree House David'
p1711
(lp1712
g159
aF16.2
aF16.5
aS'https://www.google.com/#q=Toppling Goliath / Tree House David'
p1713
asS'SPB Jack the Sipper'
p1714
(lp1715
g290
aF13.4
aF13.4
aS'https://www.google.com/#q=SPB Jack the Sipper'
p1716
asS'Superstition Date Night'
p1717
(lp1718
g267
aF16.5
aF16.8
aS'https://www.google.com/#q=Superstition Date Night'
p1719
asS'OEC Experimentalis With Meyer Lemons (Pinot Noir/Gin Barrel)'
p1720
(lp1721
g45
aF16.1
aF16.7
aS'https://www.google.com/#q=OEC Experimentalis With Meyer Lemons (Pinot Noir/Gin Barrel)'
p1722
asS'Nebraska India Pale Ale (2011- )'
p1723
(lp1724
g95
aF14.4
aF14.5
aS'https://www.google.com/#q=Nebraska India Pale Ale (2011- )'
p1725
asS'Cigar City / Mikkeller Nielsbohrium'
p1726
(lp1727
g155
aF16.3
aF16.4
aS'https://www.google.com/#q=Cigar City / Mikkeller Nielsbohrium'
p1728
asS'Three Floyds Behemoth - Bourbon Barrel'
p1729
(lp1730
g11
aF15.9
aF16.2
aS'https://www.google.com/#q=Three Floyds Behemoth - Bourbon Barrel'
p1731
asS'Fargo OFest Oktoberfest Lager'
p1732
(lp1733
g114
aF12.5
aF12.9
aS'https://www.google.com/#q=Fargo OFest Oktoberfest Lager'
p1734
asS'Fargo Roustabout Stout'
p1735
(lp1736
g114
aF12.6
aF12.8
aS'https://www.google.com/#q=Fargo Roustabout Stout'
p1737
asS'Right Proper Diamonds, Fur Coat, Champagne'
p1738
(lp1739
g174
aF15.7
aF16.0
aS'https://www.google.com/#q=Right Proper Diamonds, Fur Coat, Champagne'
p1740
asS'18th Street Bitches Bank'
p1741
(lp1742
g11
aF16.2
aF16.3
aS'https://www.google.com/#q=18th Street Bitches Bank'
p1743
asS'Laughing Sun Sinister Pear'
p1744
(lp1745
g114
aF12.8
aF12.2
aS'https://www.google.com/#q=Laughing Sun Sinister Pear'
p1746
asS'American Solera Foeder Cerise'
p1747
(lp1748
g136
aF17.0
aF17.2
aS'https://www.google.com/#q=American Solera Foeder Cerise'
p1749
asS'Free State Winterfest IPA'
p1750
(lp1751
g53
aF14.6
aF14.6
aS'https://www.google.com/#q=Free State Winterfest IPA'
p1752
asS'Bullfrog Le Roar Grrrz Druiven'
p1753
(lp1754
g3
aF16.5
aF16.9
aS'https://www.google.com/#q=Bullfrog Le Roar Grrrz Druiven'
p1755
asS'Bayou Teche Biere Joi Barrel Aged'
p1756
(lp1757
g91
aF14.2
aF14.5
aS'https://www.google.com/#q=Bayou Teche Biere Joi Barrel Aged'
p1758
asS'Three Floyds Quit Hitting Yourself'
p1759
(lp1760
g11
aF16.1
aF16.2
aS'https://www.google.com/#q=Three Floyds Quit Hitting Yourself'
p1761
asS'Straight To Ale Laika Russian Imperial Stout - Cabernet Barrel Aged'
p1762
(lp1763
g306
aF15.0
aF15.1
aS'https://www.google.com/#q=Straight To Ale Laika Russian Imperial Stout - Cabernet Barrel Aged'
p1764
asS'Kona Da Grind Buzz Kona Coffee Imperial Stout'
p1765
(lp1766
g181
aF15.4
aF15.4
aS'https://www.google.com/#q=Kona Da Grind Buzz Kona Coffee Imperial Stout'
p1767
asS'Allagash Farm to Face'
p1768
(lp1769
g448
aF15.6
aF16.0
aS'https://www.google.com/#q=Allagash Farm to Face'
p1770
asS'Goose Island Bourbon County Stout - Coffee'
p1771
(lp1772
g274
aF17.0
aF17.1
aS'https://www.google.com/#q=Goose Island Bourbon County Stout - Coffee'
p1773
asS'Foundation Epiphany IPA'
p1774
(lp1775
g448
aF16.3
aF16.5
aS'https://www.google.com/#q=Foundation Epiphany IPA'
p1776
asS'Triumph Coffee & Cream Stout'
p1777
(lp1778
g398
aF15.1
aF15.2
aS'https://www.google.com/#q=Triumph Coffee & Cream Stout'
p1779
asS'Big Sky Bobos Robust Porter'
p1780
(lp1781
g163
aF14.6
aF14.6
aS'https://www.google.com/#q=Big Sky Bobos Robust Porter'
p1782
asS'Voodoo Grande Negro Voodoo Papi (Bourbon Barrel Aged)'
p1783
(lp1784
g3
aF17.2
aF17.5
aS'https://www.google.com/#q=Voodoo Grande Negro Voodoo Papi (Bourbon Barrel Aged)'
p1785
asS'Bridge Brew Works Trubell'
p1786
(lp1787
g41
aF12.9
aF13.1
aS'https://www.google.com/#q=Bridge Brew Works Trubell'
p1788
asS'Wicked Weed Dark Age Bourbon Stout'
p1789
(lp1790
g99
aF16.2
aF16.4
aS'https://www.google.com/#q=Wicked Weed Dark Age Bourbon Stout'
p1791
asS'Kona Pipeline Porter'
p1792
(lp1793
g181
aF14.1
aF14.2
aS'https://www.google.com/#q=Kona Pipeline Porter'
p1794
asS'Kane A Night to End All Dawns - Coffee'
p1795
(lp1796
g398
aF15.8
aF15.9
aS'https://www.google.com/#q=Kane A Night to End All Dawns - Coffee'
p1797
asS'Blackberry Farm Apricot Saison'
p1798
(lp1799
g64
aF14.7
aF14.8
aS'https://www.google.com/#q=Blackberry Farm Apricot Saison'
p1800
asS'Town Hall Ol Jack Frost'
p1801
(lp1802
g87
aF15.8
aF15.9
aS'https://www.google.com/#q=Town Hall Ol Jack Frost'
p1803
asS'Westbrook 4th Anniversary Chocolate Coconut Almond Imperial Stout'
p1804
(lp1805
g76
aF15.6
aF15.8
aS'https://www.google.com/#q=Westbrook 4th Anniversary Chocolate Coconut Almond Imperial Stout'
p1806
asS'Against the Grain Tropical Segway Kitten'
p1807
(lp1808
g23
aF15.0
aF15.3
aS'https://www.google.com/#q=Against the Grain Tropical Segway Kitten'
p1809
asS'Iron Hill Bourbon (Tom) Barleywine'
p1810
(lp1811
g366
aF15.6
aF15.8
aS'https://www.google.com/#q=Iron Hill Bourbon (Tom) Barleywine'
p1812
asS'Cigar City Cognac Barrel-Aged Imperial Sweet Stout'
p1813
(lp1814
g155
aF16.4
aF16.4
aS'https://www.google.com/#q=Cigar City Cognac Barrel-Aged Imperial Sweet Stout'
p1815
asS'Melvin Hubert MPA'
p1816
(lp1817
g68
aF15.1
aF15.3
aS'https://www.google.com/#q=Melvin Hubert MPA'
p1818
asS'Hill Farmstead Citra Single Hop Pale Ale'
p1819
(lp1820
g188
aF16.3
aF16.6
aS'https://www.google.com/#q=Hill Farmstead Citra Single Hop Pale Ale'
p1821
asS'DC Brau For Others'
p1822
(lp1823
g174
aF16.0
aF16.3
aS'https://www.google.com/#q=DC Brau For Others'
p1824
asS'Bullfrog Le Roar Grrrz Aardbei'
p1825
(lp1826
g3
aF16.1
aF16.3
aS'https://www.google.com/#q=Bullfrog Le Roar Grrrz Aardbei'
p1827
asS'Wicked Weed Framboos Morte'
p1828
(lp1829
g99
aF16.3
aF16.3
aS'https://www.google.com/#q=Wicked Weed Framboos Morte'
p1830
asS'Nebraska HopAnomaly'
p1831
(lp1832
g95
aF14.5
aF14.6
aS'https://www.google.com/#q=Nebraska HopAnomaly'
p1833
asS'SPB Cicada Series 2014 IPA'
p1834
(lp1835
g290
aF14.3
aF14.7
aS'https://www.google.com/#q=SPB Cicada Series 2014 IPA'
p1836
asS'Indeed D.I.D.D.C.W.Q.M.S'
p1837
(lp1838
g87
aF16.6
aF16.8
aS'https://www.google.com/#q=Indeed D.I.D.D.C.W.Q.M.S'
p1839
asS'Alpine Beer Company Keene Idea'
p1840
(lp1841
g15
aF16.9
aF17.2
aS'https://www.google.com/#q=Alpine Beer Company Keene Idea'
p1842
asS'Stillwater / Casita Cerveceria On Fleek'
p1843
(lp1844
g417
aF15.5
aF15.6
aS'https://www.google.com/#q=Stillwater / Casita Cerveceria On Fleek'
p1845
asS'Free State Owd Macs Imperial Stout'
p1846
(lp1847
g53
aF16.5
aF16.8
aS'https://www.google.com/#q=Free State Owd Macs Imperial Stout'
p1848
asS'NOLA Irish Channel Stout'
p1849
(lp1850
g91
aF14.5
aF14.7
aS'https://www.google.com/#q=NOLA Irish Channel Stout'
p1851
asS'Anchorage Time Waits For No One'
p1852
(lp1853
g313
aF17.6
aF17.9
aS'https://www.google.com/#q=Anchorage Time Waits For No One'
p1854
asS'Stillwater Import Series Vol. 5 Debauched - Brunello Barrel'
p1855
(lp1856
g417
aF15.4
aF15.5
aS'https://www.google.com/#q=Stillwater Import Series Vol. 5 Debauched - Brunello Barrel'
p1857
asS'AleSmith Speedway Stout'
p1858
(lp1859
g15
aF17.2
aF17.4
aS'https://www.google.com/#q=AleSmith Speedway Stout'
p1860
asS'Against the Grain Gnight Ryder'
p1861
(lp1862
g23
aF15.0
aF15.3
aS'https://www.google.com/#q=Against the Grain Gnight Ryder'
p1863
asS'Abita Shotgun Double IPA'
p1864
(lp1865
g91
aF15.0
aF15.2
aS'https://www.google.com/#q=Abita Shotgun Double IPA'
p1866
asS'Carters De-Railed IPA'
p1867
(lp1868
g163
aF15.6
aF16.2
aS'https://www.google.com/#q=Carters De-Railed IPA'
p1869
asS'Hill Farmstead Society & Solitude #4'
p1870
(lp1871
g188
aF16.4
aF16.6
aS'https://www.google.com/#q=Hill Farmstead Society & Solitude #4'
p1872
asS'Dempseys Valkyrie Red'
p1873
(lp1874
g110
aF11.6
aF11.4
aS'https://www.google.com/#q=Dempseys Valkyrie Red'
p1875
asS'Big Hole Head Smashed In'
p1876
(lp1877
g163
aF14.7
aF14.7
aS'https://www.google.com/#q=Big Hole Head Smashed In'
p1878
asS'Midnight Sun 2014 Alaskana Series: Termination Dust'
p1879
(lp1880
g313
aF15.4
aF15.7
aS'https://www.google.com/#q=Midnight Sun 2014 Alaskana Series: Termination Dust'
p1881
asS'Hill Farmstead Society & Solitude #2'
p1882
(lp1883
g188
aF16.5
aF16.7
aS'https://www.google.com/#q=Hill Farmstead Society & Solitude #2'
p1884
asS'Hill Farmstead Society & Solitude #3'
p1885
(lp1886
g188
aF16.4
aF16.7
aS'https://www.google.com/#q=Hill Farmstead Society & Solitude #3'
p1887
asS'Revival White Electric Coffee Stout'
p1888
(lp1889
g106
aF13.9
aF14.3
aS'https://www.google.com/#q=Revival White Electric Coffee Stout'
p1890
asS'Selins Grove The Phoenix Kriek'
p1891
(lp1892
g3
aF16.4
aF16.8
aS'https://www.google.com/#q=Selins Grove The Phoenix Kriek'
p1893
asS'Laughing Dog Hop Dog Harvest Pale Ale'
p1894
(lp1895
g170
aF14.7
aF14.9
aS'https://www.google.com/#q=Laughing Dog Hop Dog Harvest Pale Ale'
p1896
asS'Evil Twin An Ms Caf Jess'
p1897
(lp1898
g83
aF16.1
aF16.3
aS'https://www.google.com/#q=Evil Twin An Ms Caf Jess'
p1899
asS'Laughing Sun Feast Like a Sultan IPA'
p1900
(lp1901
g114
aF14.5
aF14.3
aS'https://www.google.com/#q=Laughing Sun Feast Like a Sultan IPA'
p1902
asS'Russian River Supplication'
p1903
(lp1904
g15
aF16.6
aF17.0
aS'https://www.google.com/#q=Russian River Supplication'
p1905
asS'Sockeye Barrel Aged Seven Devils Imperial Stout'
p1906
(lp1907
g170
aF15.9
aF16.2
aS'https://www.google.com/#q=Sockeye Barrel Aged Seven Devils Imperial Stout'
p1908
asS'Dogfish Head 120 Minute IPA'
p1909
(lp1910
g366
aF15.5
aF15.7
aS'https://www.google.com/#q=Dogfish Head 120 Minute IPA'
p1911
asS'Superstition Black Berry White'
p1912
(lp1913
g267
aF17.2
aF17.6
aS'https://www.google.com/#q=Superstition Black Berry White'
p1914
asS'Avery Tweak'
p1915
(lp1916
g49
aF16.2
aF16.3
aS'https://www.google.com/#q=Avery Tweak'
p1917
asS'Maui Brewing Coconut Hiwa Porter'
p1918
(lp1919
g181
aF14.8
aF15.0
aS'https://www.google.com/#q=Maui Brewing Coconut Hiwa Porter'
p1920
asS'Dominion Millennium Oak Aged'
p1921
(lp1922
g366
aF15.6
aF16.0
aS'https://www.google.com/#q=Dominion Millennium Oak Aged'
p1923
asS'Steel Toe Before the Dawn'
p1924
(lp1925
g87
aF16.0
aF16.3
aS'https://www.google.com/#q=Steel Toe Before the Dawn'
p1926
asS'Goose Island Nutulhu'
p1927
(lp1928
g274
aF16.6
aF17.0
aS'https://www.google.com/#q=Goose Island Nutulhu'
p1929
asS'SPB Mississippi Fire Ant: Bourbon Barrel Aged'
p1930
(lp1931
g290
aF15.1
aF15.6
aS'https://www.google.com/#q=SPB Mississippi Fire Ant: Bourbon Barrel Aged'
p1932
asS'Bosque (NM) Scale Tipper IPA'
p1933
(lp1934
g143
aF15.5
aF15.9
aS'https://www.google.com/#q=Bosque (NM) Scale Tipper IPA'
p1935
asS'Diamond Bear Dogtown Brown'
p1936
(lp1937
g37
aF12.9
aF13.1
aS'https://www.google.com/#q=Diamond Bear Dogtown Brown'
p1938
asS'Hill Farmstead Dorothy - Wine Barrel Aged'
p1939
(lp1940
g188
aF17.0
aF17.4
aS'https://www.google.com/#q=Hill Farmstead Dorothy - Wine Barrel Aged'
p1941
asS'Lazy Magnolia Southern Gentleman'
p1942
(lp1943
g290
aF14.7
aF15.4
aS'https://www.google.com/#q=Lazy Magnolia Southern Gentleman'
p1944
asS'Side Project / De Garde Orviamo'
p1945
(lp1946
g7
aF16.7
aF17.2
aS'https://www.google.com/#q=Side Project / De Garde Orviamo'
p1947
asS'Westbrook 2nd Anniversary Capn Skoons Ballistic Stout'
p1948
(lp1949
g76
aF15.5
aF15.7
aS'https://www.google.com/#q=Westbrook 2nd Anniversary Capn Skoons Ballistic Stout'
p1950
asS'Bluegrass Bourbon Barrel Smoked Stout'
p1951
(lp1952
g23
aF15.7
aF15.9
aS'https://www.google.com/#q=Bluegrass Bourbon Barrel Smoked Stout'
p1953
asS'Dogfish Head URKontinent'
p1954
(lp1955
g366
aF15.0
aF15.2
aS'https://www.google.com/#q=Dogfish Head URKontinent'
p1956
asS'Lazy Magnolia Black Creek Southern Style Imperial Stout'
p1957
(lp1958
g290
aF13.9
aF13.8
aS'https://www.google.com/#q=Lazy Magnolia Black Creek Southern Style Imperial Stout'
p1959
asS'Flying Dog Kujo'
p1960
(lp1961
g417
aF15.2
aF15.3
aS'https://www.google.com/#q=Flying Dog Kujo'
p1962
asS'Lewis and Clark Tumbleweed IPA'
p1963
(lp1964
g163
aF15.1
aF15.3
aS'https://www.google.com/#q=Lewis and Clark Tumbleweed IPA'
p1965
asS'Bridge Brew Works Moxxee Coffee Stout'
p1966
(lp1967
g41
aF15.2
aF15.2
aS'https://www.google.com/#q=Bridge Brew Works Moxxee Coffee Stout'
p1968
asS'Silver Peak Peavine Porter'
p1969
(lp1970
g27
aF14.0
aF14.0
aS'https://www.google.com/#q=Silver Peak Peavine Porter'
p1971
asS'Portsmouth Barleywine'
p1972
(lp1973
g241
aF15.5
aF15.9
aS'https://www.google.com/#q=Portsmouth Barleywine'
p1974
asS'Lickinghole Creek Great Commander'
p1975
(lp1976
g379
aF16.3
aF16.5
aS'https://www.google.com/#q=Lickinghole Creek Great Commander'
p1977
asS'Smuttynose Big A IPA'
p1978
(lp1979
g241
aF15.3
aF15.6
aS'https://www.google.com/#q=Smuttynose Big A IPA'
p1980
asS'Blackberry Farm Classic Saison'
p1981
(lp1982
g64
aF15.2
aF15.3
aS'https://www.google.com/#q=Blackberry Farm Classic Saison'
p1983
asS'Maine Beer I'
p1984
(lp1985
g448
aF16.2
aF16.4
aS'https://www.google.com/#q=Maine Beer I'
p1986
asS'Laughing Dog The Dogfather Imperial Stout - Bourbon Barrel'
p1987
(lp1988
g170
aF14.9
aF15.0
aS'https://www.google.com/#q=Laughing Dog The Dogfather Imperial Stout - Bourbon Barrel'
p1989
asS'Jester King / Mikkeller Weasel Rodeo'
p1990
(lp1991
g72
aF15.4
aF15.6
aS'https://www.google.com/#q=Jester King / Mikkeller Weasel Rodeo'
p1992
asS'Foolproof Raincloud Porter'
p1993
(lp1994
g106
aF14.1
aF14.3
aS'https://www.google.com/#q=Foolproof Raincloud Porter'
p1995
asS'Deciduous Cumulation'
p1996
(lp1997
g241
aF16.1
aF16.1
aS'https://www.google.com/#q=Deciduous Cumulation'
p1998
asS'Good People Hitchhiker American IPA'
p1999
(lp2000
g306
aF14.5
aF14.7
aS'https://www.google.com/#q=Good People Hitchhiker American IPA'
p2001
asS'Goose Island Imperial IPA'
p2002
(lp2003
g274
aF15.9
aF16.2
aS'https://www.google.com/#q=Goose Island Imperial IPA'
p2004
asS'Core ESB'
p2005
(lp2006
g37
aF14.6
aF14.5
aS'https://www.google.com/#q=Core ESB'
p2007
asS'Hill Farmstead Juicy'
p2008
(lp2009
g188
aF16.7
aF17.2
aS'https://www.google.com/#q=Hill Farmstead Juicy'
p2010
asS'Russian River Beatification (Batch 002 +)'
p2011
(lp2012
g15
aF16.5
aF16.9
aS'https://www.google.com/#q=Russian River Beatification (Batch 002 +)'
p2013
asS'Hoppin Frog Barrel Aged BORIS Bairille Aois'
p2014
(lp2015
g260
aF15.9
aF15.9
aS'https://www.google.com/#q=Hoppin Frog Barrel Aged BORIS Bairille Aois'
p2016
asS'Against the Grain Rico Sauvin'
p2017
(lp2018
g23
aF14.8
aF15.0
aS'https://www.google.com/#q=Against the Grain Rico Sauvin'
p2019
asS'Yazoo / New Belgium Embrace The Funk Series: Rufus'
p2020
(lp2021
g64
aF15.9
aF16.6
aS'https://www.google.com/#q=Yazoo / New Belgium Embrace The Funk Series: Rufus'
p2022
asS'Willimantic Willi Whammer'
p2023
(lp2024
g45
aF15.8
aF16.2
aS'https://www.google.com/#q=Willimantic Willi Whammer'
p2025
asS'Tregs Nugget Nectar Ale'
p2026
(lp2027
g3
aF15.8
aF16.1
aS'https://www.google.com/#q=Tregs Nugget Nectar Ale'
p2028
asS'DC Brau On the Wings of Armageddon'
p2029
(lp2030
g174
aF15.5
aF15.8
aS'https://www.google.com/#q=DC Brau On the Wings of Armageddon'
p2031
asS'Nebraska Reserve Series Sexy Betty'
p2032
(lp2033
g95
aF15.7
aF15.8
aS'https://www.google.com/#q=Nebraska Reserve Series Sexy Betty'
p2034
asS'Lazy Magnolia Me and the Dev-Ale'
p2035
(lp2036
g290
aF13.3
aF13.3
aS'https://www.google.com/#q=Lazy Magnolia Me and the Dev-Ale'
p2037
asS'Nebraska Inception Series #08 - Blanc is The New White'
p2038
(lp2039
g95
aF14.7
aF15.7
aS'https://www.google.com/#q=Nebraska Inception Series #08 - Blanc is The New White'
p2040
asS'Prairie Funky Gold Simcoe'
p2041
(lp2042
g136
aF15.4
aF15.8
aS'https://www.google.com/#q=Prairie Funky Gold Simcoe'
p2043
asS'Westbrook Mexican Cake Imperial Stout - Tequila Barrel'
p2044
(lp2045
g76
aF16.3
aF16.4
aS'https://www.google.com/#q=Westbrook Mexican Cake Imperial Stout - Tequila Barrel'
p2046
asS'Abita Select Imperator'
p2047
(lp2048
g91
aF14.0
aF14.1
aS'https://www.google.com/#q=Abita Select Imperator'
p2049
asS'Hill Farmstead Susan'
p2050
(lp2051
g188
aF16.4
aF16.7
aS'https://www.google.com/#q=Hill Farmstead Susan'
p2052
asS'Iron Hill Quadrupel (Quadfather)'
p2053
(lp2054
g366
aF15.0
aF15.2
aS'https://www.google.com/#q=Iron Hill Quadrupel (Quadfather)'
p2055
asS'New Glarus Dancing Man Wheat'
p2056
(lp2057
g57
aF15.5
aF15.7
aS'https://www.google.com/#q=New Glarus Dancing Man Wheat'
p2058
asS'Against the Grain Citra Ass Down'
p2059
(lp2060
g23
aF14.7
aF15.0
aS'https://www.google.com/#q=Against the Grain Citra Ass Down'
p2061
asS'Brooklyn Black Chocolate Stout'
p2062
(lp2063
g83
aF16.0
aF16.1
aS'https://www.google.com/#q=Brooklyn Black Chocolate Stout'
p2064
asS'Firehouse Red'
p2065
(lp2066
g110
aF12.7
aF13.1
aS'https://www.google.com/#q=Firehouse Red'
p2067
asS'Victory Old Horizontal'
p2068
(lp2069
g3
aF16.0
aF16.3
aS'https://www.google.com/#q=Victory Old Horizontal'
p2070
asS'Maui Brewing Freight Trains IPA'
p2071
(lp2072
g181
aF14.7
aF15.2
aS'https://www.google.com/#q=Maui Brewing Freight Trains IPA'
p2073
asS'Town Hall Russian Roulette'
p2074
(lp2075
g87
aF16.3
aF16.3
aS'https://www.google.com/#q=Town Hall Russian Roulette'
p2076
asS'Evil Twin Pappys Even More Jesus'
p2077
(lp2078
g83
aF17.2
aF17.4
aS'https://www.google.com/#q=Evil Twin Pappys Even More Jesus'
p2079
asS'Free State Hop Jack Ale'
p2080
(lp2081
g53
aF14.4
aF14.7
aS'https://www.google.com/#q=Free State Hop Jack Ale'
p2082
asS'Pipeworks Emerald Grouper'
p2083
(lp2084
g274
aF15.9
aF16.3
aS'https://www.google.com/#q=Pipeworks Emerald Grouper'
p2085
asS'Tallgrass Wooden Rooster'
p2086
(lp2087
g53
aF14.7
aF14.9
aS'https://www.google.com/#q=Tallgrass Wooden Rooster'
p2088
asS'Three Floyds / The Bruery Rue DFloyd'
p2089
(lp2090
g11
aF16.3
aF16.5
aS'https://www.google.com/#q=Three Floyds / The Bruery Rue DFloyd'
p2091
asS'OEC Exilis'
p2092
(lp2093
g45
aF15.3
aF15.6
aS'https://www.google.com/#q=OEC Exilis'
p2094
asS'Schramms The Heart of Darkness'
p2095
(lp2096
g19
aF17.9
aF18.0
aS'https://www.google.com/#q=Schramms The Heart of Darkness'
p2097
asS'Snake River Le Serpent'
p2098
(lp2099
g68
aF15.2
aF15.7
aS'https://www.google.com/#q=Snake River Le Serpent'
p2100
asS'Ozark Bourbon Barrel Aged Double Cream Stout'
p2101
(lp2102
g37
aF15.7
aF15.8
aS'https://www.google.com/#q=Ozark Bourbon Barrel Aged Double Cream Stout'
p2103
asS'Surly Blakkr'
p2104
(lp2105
g87
aF15.6
aF15.8
aS'https://www.google.com/#q=Surly Blakkr'
p2106
asS'DuClaw Repent'
p2107
(lp2108
g417
aF15.3
aF15.5
aS'https://www.google.com/#q=DuClaw Repent'
p2109
asS'Prairie Bomb! - Balcones Barrel Aged'
p2110
(lp2111
g136
aF16.3
aF16.5
aS'https://www.google.com/#q=Prairie Bomb! - Balcones Barrel Aged'
p2112
asS'Terrapin Oaked Aged Rye Squared'
p2113
(lp2114
g347
aF15.8
aF16.2
aS'https://www.google.com/#q=Terrapin Oaked Aged Rye Squared'
p2115
asS'Hill Farmstead Ann'
p2116
(lp2117
g188
aF17.3
aF17.5
aS'https://www.google.com/#q=Hill Farmstead Ann'
p2118
asS'Nebraska Reserve Series Melange A Trois'
p2119
(lp2120
g95
aF15.2
aF15.3
aS'https://www.google.com/#q=Nebraska Reserve Series Melange A Trois'
p2121
asS'Fat Heads Head Hunter IPA'
p2122
(lp2123
g260
aF15.9
aF16.2
aS'https://www.google.com/#q=Fat Heads Head Hunter IPA'
p2124
asS'Kelsen Vendel Imperial Stout'
p2125
(lp2126
g241
aF16.1
aF15.8
aS'https://www.google.com/#q=Kelsen Vendel Imperial Stout'
p2127
asS'Fremont Dark Star - Bourbon Barrel'
p2128
(lp2129
g231
aF16.3
aF16.5
aS'https://www.google.com/#q=Fremont Dark Star - Bourbon Barrel'
p2130
asS'Jackie Os Coffee Bourbon Barrel Oil Of Aphrodite'
p2131
(lp2132
g260
aF16.3
aF16.7
aS'https://www.google.com/#q=Jackie Os Coffee Bourbon Barrel Oil Of Aphrodite'
p2133
asS'Westbrook Mexican Cake Imperial Stout - Bourbon Barrel (2015)'
p2134
(lp2135
g76
aF16.5
aF16.7
aS'https://www.google.com/#q=Westbrook Mexican Cake Imperial Stout - Bourbon Barrel (2015)'
p2136
asS'Vinos Imperial Stout'
p2137
(lp2138
g37
aF14.2
aF14.3
aS'https://www.google.com/#q=Vinos Imperial Stout'
p2139
asS'Liquid Bread Liberty Stout'
p2140
(lp2141
g53
aF15.3
aF15.0
aS'https://www.google.com/#q=Liquid Bread Liberty Stout'
p2142
asS'Right Proper Kick.Kick.Snare'
p2143
(lp2144
g174
aF15.2
aF15.5
aS'https://www.google.com/#q=Right Proper Kick.Kick.Snare'
p2145
asS'Big Sky Shake-A-Day India Pale Ale'
p2146
(lp2147
g163
aF14.5
aF14.8
aS'https://www.google.com/#q=Big Sky Shake-A-Day India Pale Ale'
p2148
asS'Fremont Dark Star - Bourbon Barrel Spice Wars'
p2149
(lp2150
g231
aF16.2
aF16.2
aS'https://www.google.com/#q=Fremont Dark Star - Bourbon Barrel Spice Wars'
p2151
asS'Great Divide Hercules Double IPA'
p2152
(lp2153
g49
aF15.9
aF16.1
aS'https://www.google.com/#q=Great Divide Hercules Double IPA'
p2154
asS'Smuttynose Smuttlabs Apple Brandy Barrel Aged Gravitation'
p2155
(lp2156
g241
aF16.6
aF16.7
aS'https://www.google.com/#q=Smuttynose Smuttlabs Apple Brandy Barrel Aged Gravitation'
p2157
asS'Uinta Crooked Line Labyrinth Black Ale'
p2158
(lp2159
g461
aF15.9
aF16.1
aS'https://www.google.com/#q=Uinta Crooked Line Labyrinth Black Ale'
p2160
asS'Great Divide Yeti Imperial Stout - Oak Aged'
p2161
(lp2162
g49
aF16.7
aF16.8
aS'https://www.google.com/#q=Great Divide Yeti Imperial Stout - Oak Aged'
p2163
asS'Prairie Brett C.'
p2164
(lp2165
g136
aF15.7
aF15.9
aS'https://www.google.com/#q=Prairie Brett C.'
p2166
asS'Selkirk Abbey Infidel'
p2167
(lp2168
g170
aF14.8
aF15.0
aS'https://www.google.com/#q=Selkirk Abbey Infidel'
p2169
asS'Superstition Aphrodisia Pyment - Cabernet/Syrah'
p2170
(lp2171
g267
aF16.4
aF16.8
aS'https://www.google.com/#q=Superstition Aphrodisia Pyment - Cabernet/Syrah'
p2172
asS'NOLA / 7venth Sun House of the Rising'
p2173
(lp2174
g91
aF15.0
aF15.0
aS'https://www.google.com/#q=NOLA / 7venth Sun House of the Rising'
p2175
asS'Upstream Gianduja Imperial Rye Brown Ale'
p2176
(lp2177
g95
aF14.8
aF15.1
aS'https://www.google.com/#q=Upstream Gianduja Imperial Rye Brown Ale'
p2178
asS'Core Barneys Imperial Red'
p2179
(lp2180
g37
aF13.6
aF13.5
aS'https://www.google.com/#q=Core Barneys Imperial Red'
p2181
asS'Tired Hands Sticky Drippy Crystals'
p2182
(lp2183
g3
aF16.4
aF16.8
aS'https://www.google.com/#q=Tired Hands Sticky Drippy Crystals'
p2184
asS'18th Street Bitches Bank - Cognac Barrel Aged'
p2185
(lp2186
g11
aF16.2
aF16.4
aS'https://www.google.com/#q=18th Street Bitches Bank - Cognac Barrel Aged'
p2187
asS'Lost Abbey The Angels Share - Bourbon Barrel'
p2188
(lp2189
g15
aF16.6
aF16.9
aS'https://www.google.com/#q=Lost Abbey The Angels Share - Bourbon Barrel'
p2190
asS'Diamond Bear Paradise Porter'
p2191
(lp2192
g37
aF13.1
aF13.2
aS'https://www.google.com/#q=Diamond Bear Paradise Porter'
p2193
asS'Uinta Crooked Line Stompin Grounds Coffee Stout'
p2194
(lp2195
g461
aF15.0
aF15.4
aS'https://www.google.com/#q=Uinta Crooked Line Stompin Grounds Coffee Stout'
p2196
asS'Against the Grain 70K'
p2197
(lp2198
g23
aF16.4
aF16.6
aS'https://www.google.com/#q=Against the Grain 70K'
p2199
asS'Lazy Magnolia 10'
p2200
(lp2201
g290
aF14.4
aF14.2
aS'https://www.google.com/#q=Lazy Magnolia 10'
p2202
asS'Wicked Weed Cherry Go Lightly'
p2203
(lp2204
g99
aF15.8
aF16.1
aS'https://www.google.com/#q=Wicked Weed Cherry Go Lightly'
p2205
asS'Bayou Teche Saison dEcrevisse (-2015)'
p2206
(lp2207
g91
aF14.1
aF14.4
aS'https://www.google.com/#q=Bayou Teche Saison dEcrevisse (-2015)'
p2208
asS'Jester King (Fn to)'
p2209
(lp2210
g72
aF15.7
aF16.2
aS'https://www.google.com/#q=Jester King (Fn to)'
p2211
asS'Central Waters Brewers Reserve Bourbon Barrel Scotch Ale'
p2212
(lp2213
g57
aF15.7
aF16.0
aS'https://www.google.com/#q=Central Waters Brewers Reserve Bourbon Barrel Scotch Ale'
p2214
asS'Superstition Marion Mead - Still'
p2215
(lp2216
g267
aF16.3
aF16.5
aS'https://www.google.com/#q=Superstition Marion Mead - Still'
p2217
asS'Big Island Golden Sabbath'
p2218
(lp2219
g181
aF14.1
aF14.0
aS'https://www.google.com/#q=Big Island Golden Sabbath'
p2220
asS'Dominion Millennium'
p2221
(lp2222
g366
aF14.8
aF15.1
aS'https://www.google.com/#q=Dominion Millennium'
p2223
asS'Toppling Goliath Sol Hunter Pale Ale'
p2224
(lp2225
g159
aF15.5
aF15.6
aS'https://www.google.com/#q=Toppling Goliath Sol Hunter Pale Ale'
p2226
asS'Alpenfire smoke'
p2227
(lp2228
g231
aF16.1
aF16.5
aS'https://www.google.com/#q=Alpenfire smoke'
p2229
asS'NoDa Hop, Drop n Roll IPA'
p2230
(lp2231
g99
aF15.5
aF15.8
aS'https://www.google.com/#q=NoDa Hop, Drop n Roll IPA'
p2232
asS'Blackberry Farm Brett Saison'
p2233
(lp2234
g64
aF15.3
aF15.5
aS'https://www.google.com/#q=Blackberry Farm Brett Saison'
p2235
asS'Westbrook Mexican Cake Imperial Stout'
p2236
(lp2237
g76
aF16.3
aF16.5
aS'https://www.google.com/#q=Westbrook Mexican Cake Imperial Stout'
p2238
asS'Anchorage The Tide and Its Takers Triple'
p2239
(lp2240
g313
aF15.5
aF15.8
aS'https://www.google.com/#q=Anchorage The Tide and Its Takers Triple'
p2241
asS'Epic / Crooked Stave Elder Brett Saison-Brett Golden Ale'
p2242
(lp2243
g461
aF15.0
aF15.2
aS'https://www.google.com/#q=Epic / Crooked Stave Elder Brett Saison-Brett Golden Ale'
p2244
asS'Thomas Hooker Liberator Doppelbock'
p2245
(lp2246
g45
aF15.3
aF15.5
aS'https://www.google.com/#q=Thomas Hooker Liberator Doppelbock'
p2247
asS'Core Oatmeal Stout'
p2248
(lp2249
g37
aF14.6
aF14.9
aS'https://www.google.com/#q=Core Oatmeal Stout'
p2250
asS'New England Coriolis'
p2251
(lp2252
g45
aF16.7
aF17.2
aS'https://www.google.com/#q=New England Coriolis'
p2253
asS'Blackberry Farm Blackberry Rye'
p2254
(lp2255
g64
aF15.1
aF15.7
aS'https://www.google.com/#q=Blackberry Farm Blackberry Rye'
p2256
asS'Thunderhead Espresso Stout'
p2257
(lp2258
g95
aF14.9
aF14.9
aS'https://www.google.com/#q=Thunderhead Espresso Stout'
p2259
asS'Ozark Cream Stout'
p2260
(lp2261
g37
aF14.9
aF15.0
aS'https://www.google.com/#q=Ozark Cream Stout'
p2262
asS'Straight To Ale Illudium'
p2263
(lp2264
g306
aF14.6
aF14.9
aS'https://www.google.com/#q=Straight To Ale Illudium'
p2265
asS'Smuttynose Julios Fashionably Old Ale'
p2266
(lp2267
g241
aF15.4
aF15.8
aS'https://www.google.com/#q=Smuttynose Julios Fashionably Old Ale'
p2268
asS'Goose Island Bourbon County Stout'
p2269
(lp2270
g274
aF17.1
aF17.2
aS'https://www.google.com/#q=Goose Island Bourbon County Stout'
p2271
asS'Bridge Brew Works Peregrine Porter'
p2272
(lp2273
g41
aF14.3
aF14.4
aS'https://www.google.com/#q=Bridge Brew Works Peregrine Porter'
p2274
asS'Melvin 2x4'
p2275
(lp2276
g68
aF15.8
aF16.0
aS'https://www.google.com/#q=Melvin 2x4'
p2277
asS'Lazy Magnolia Timber Beast'
p2278
(lp2279
g290
aF14.6
aF14.8
aS'https://www.google.com/#q=Lazy Magnolia Timber Beast'
p2280
asS'Wicked Weed Pernicious IPA'
p2281
(lp2282
g99
aF15.6
aF15.8
aS'https://www.google.com/#q=Wicked Weed Pernicious IPA'
p2283
asS'Prairie Pirate Bomb!'
p2284
(lp2285
g136
aF16.6
aF16.8
aS'https://www.google.com/#q=Prairie Pirate Bomb!'
p2286
asS'AleWerks Brewmasters Reserve Bourbon Barrel Porter'
p2287
(lp2288
g379
aF15.5
aF15.7
aS'https://www.google.com/#q=AleWerks Brewmasters Reserve Bourbon Barrel Porter'
p2289
asS'Stoneface IPA'
p2290
(lp2291
g241
aF15.1
aF15.4
aS'https://www.google.com/#q=Stoneface IPA'
p2292
asS'Fossil Cove La Brea Brown'
p2293
(lp2294
g37
aF12.9
aF12.8
aS'https://www.google.com/#q=Fossil Cove La Brea Brown'
p2295
asS'Cigar City Marshal Zhukovs Imperial Stout'
p2296
(lp2297
g155
aF16.5
aF16.7
aS'https://www.google.com/#q=Cigar City Marshal Zhukovs Imperial Stout'
p2298
asS'Terminal BrewHouse Southsidenstein Stout'
p2299
(lp2300
g64
aF14.6
aF14.8
aS'https://www.google.com/#q=Terminal BrewHouse Southsidenstein Stout'
p2301
asS'Iron Hill Bourbon Porter'
p2302
(lp2303
g366
aF15.0
aF15.1
aS'https://www.google.com/#q=Iron Hill Bourbon Porter'
p2304
asS'Wiseacre Gotta Get Up to Get Down Coffee Milk Stout'
p2305
(lp2306
g64
aF15.0
aF15.1
aS'https://www.google.com/#q=Wiseacre Gotta Get Up to Get Down Coffee Milk Stout'
p2307
asS'Evil Twin Auld Yin'
p2308
(lp2309
g83
aF15.9
aF16.1
aS'https://www.google.com/#q=Evil Twin Auld Yin'
p2310
asS'Maple River Winery Honey Apple Wine'
p2311
(lp2312
g114
aF11.8
aF12.1
aS'https://www.google.com/#q=Maple River Winery Honey Apple Wine'
p2313
asS'Toppling Goliath Mornin Delight'
p2314
(lp2315
g159
aF17.7
aF17.8
aS'https://www.google.com/#q=Toppling Goliath Mornin Delight'
p2316
asS'Parish Ghost In The Machine'
p2317
(lp2318
g91
aF15.8
aF16.2
aS'https://www.google.com/#q=Parish Ghost In The Machine'
p2319
asS'Fat Heads Hop JuJu Imperial IPA'
p2320
(lp2321
g260
aF16.1
aF16.4
aS'https://www.google.com/#q=Fat Heads Hop JuJu Imperial IPA'
p2322
asS'De Garde The Anniversary'
p2323
(lp2324
g147
aF16.6
aF17.0
aS'https://www.google.com/#q=De Garde The Anniversary'
p2325
asS'Stillwater Barrel Aged Series - Cellar Door'
p2326
(lp2327
g417
aF15.5
aF15.7
aS'https://www.google.com/#q=Stillwater Barrel Aged Series - Cellar Door'
p2328
asS'West Sixth Snake Eyes Imperial Stout'
p2329
(lp2330
g23
aF15.2
aF15.0
aS'https://www.google.com/#q=West Sixth Snake Eyes Imperial Stout'
p2331
asS'Brash Vulgar Display of Power'
p2332
(lp2333
g72
aF16.4
aF16.5
aS'https://www.google.com/#q=Brash Vulgar Display of Power'
p2334
asS'Carters Saison De Carter'
p2335
(lp2336
g163
aF14.5
aF14.5
aS'https://www.google.com/#q=Carters Saison De Carter'
p2337
asS'Boneyard Notorious IPA3'
p2338
(lp2339
g147
aF16.2
aF16.3
aS'https://www.google.com/#q=Boneyard Notorious IPA3'
p2340
asS'Wicked Weed Red Angel'
p2341
(lp2342
g99
aF16.3
aF16.4
aS'https://www.google.com/#q=Wicked Weed Red Angel'
p2343
asS'Fremont Abominable - Bourbon Barrel'
p2344
(lp2345
g231
aF16.1
aF16.3
aS'https://www.google.com/#q=Fremont Abominable - Bourbon Barrel'
p2346
asS'Lucky Bucket Whiskey Barrel Aged Certified Evil'
p2347
(lp2348
g95
aF14.6
aF14.6
aS'https://www.google.com/#q=Lucky Bucket Whiskey Barrel Aged Certified Evil'
p2349
asS'Harvest Moon Oceanus Procellarum'
p2350
(lp2351
g398
aF16.3
aF16.4
aS'https://www.google.com/#q=Harvest Moon Oceanus Procellarum'
p2352
asS'Stone Imperial Russian Stout'
p2353
(lp2354
g15
aF16.8
aF17.0
aS'https://www.google.com/#q=Stone Imperial Russian Stout'
p2355
asS'Evil Twin Imperial Biscotti Break - DeCicco Version'
p2356
(lp2357
g83
aF16.1
aF16.3
aS'https://www.google.com/#q=Evil Twin Imperial Biscotti Break - DeCicco Version'
p2358
asS'Crooked Stave Nightmare on Brett (Raspberry)'
p2359
(lp2360
g49
aF16.4
aF16.5
aS'https://www.google.com/#q=Crooked Stave Nightmare on Brett (Raspberry)'
p2361
asS'Revival Double Black IPA'
p2362
(lp2363
g106
aF14.5
aF14.7
aS'https://www.google.com/#q=Revival Double Black IPA'
p2364
asS'Prairie Bomb!'
p2365
(lp2366
g136
aF16.6
aF16.8
aS'https://www.google.com/#q=Prairie Bomb!'
p2367
asS'Blackberry Farm New World Cuvee Dry Hop Saison (2016)'
p2368
(lp2369
g64
aF15.1
aF15.1
aS'https://www.google.com/#q=Blackberry Farm New World Cuvee Dry Hop Saison (2016)'
p2370
asS'Westbrook Shanes Big DIPA'
p2371
(lp2372
g76
aF15.3
aF15.6
aS'https://www.google.com/#q=Westbrook Shanes Big DIPA'
p2373
asS'Superstition Straw Berry White'
p2374
(lp2375
g267
aF18.1
aF18.4
aS'https://www.google.com/#q=Superstition Straw Berry White'
p2376
asS'Three Floyds Dreadnaught Imperial IPA'
p2377
(lp2378
g11
aF17.0
aF17.2
aS'https://www.google.com/#q=Three Floyds Dreadnaught Imperial IPA'
p2379
asS'Iron Hill Oak Aged Old Tom'
p2380
(lp2381
g366
aF16.2
aF16.5
aS'https://www.google.com/#q=Iron Hill Oak Aged Old Tom'
p2382
asS'American Solera Foeder Gold'
p2383
(lp2384
g136
aF16.4
aF16.9
aS'https://www.google.com/#q=American Solera Foeder Gold'
p2385
asS'Good People Snake Handler'
p2386
(lp2387
g306
aF14.9
aF14.9
aS'https://www.google.com/#q=Good People Snake Handler'
p2388
asS'Oskar Blues Ten FIDY'
p2389
(lp2390
g49
aF16.4
aF16.6
aS'https://www.google.com/#q=Oskar Blues Ten FIDY'
p2391
asS'Hill Farmstead Damon'
p2392
(lp2393
g188
aF16.7
aF16.9
aS'https://www.google.com/#q=Hill Farmstead Damon'
p2394
asS'Marble D.I.P.A.'
p2395
(lp2396
g143
aF14.9
aF15.0
aS'https://www.google.com/#q=Marble D.I.P.A.'
p2397
asS'Bells Bourbon Barrel Batch 9000 Ale'
p2398
(lp2399
g19
aF16.3
aF16.5
aS'https://www.google.com/#q=Bells Bourbon Barrel Batch 9000 Ale'
p2400
asS'Funky Buddha Wide Awake Its Morning'
p2401
(lp2402
g155
aF16.9
aF17.0
aS'https://www.google.com/#q=Funky Buddha Wide Awake Its Morning'
p2403
asS'Town Hall Wee Heavy'
p2404
(lp2405
g87
aF15.8
aF16.3
aS'https://www.google.com/#q=Town Hall Wee Heavy'
p2406
asS'Yazoo Embrace the Funk Series: Deux Rouges'
p2407
(lp2408
g64
aF15.3
aF15.8
aS'https://www.google.com/#q=Yazoo Embrace the Funk Series: Deux Rouges'
p2409
asS'Melovino Southern Berry'
p2410
(lp2411
g398
aF16.6
aF17.1
aS'https://www.google.com/#q=Melovino Southern Berry'
p2412
asS'New England Imperial Stout Trooper'
p2413
(lp2414
g45
aF15.6
aF15.8
aS'https://www.google.com/#q=New England Imperial Stout Trooper'
p2415
asS'SPB Cicada Series 2015 IPA'
p2416
(lp2417
g290
aF14.5
aF14.5
aS'https://www.google.com/#q=SPB Cicada Series 2015 IPA'
p2418
asS'James E. Pepper 1776 American Brown Ale'
p2419
(lp2420
g174
aF15.3
aF15.3
aS'https://www.google.com/#q=James E. Pepper 1776 American Brown Ale'
p2421
asS'Superstition Fruit of Venus'
p2422
(lp2423
g267
aF17.3
aF17.5
aS'https://www.google.com/#q=Superstition Fruit of Venus'
p2424
asS'Vinos Lazyboy Stout'
p2425
(lp2426
g37
aF13.2
aF13.0
aS'https://www.google.com/#q=Vinos Lazyboy Stout'
p2427
asS'Allagash Cuve dIndustrial'
p2428
(lp2429
g448
aF16.2
aF16.4
aS'https://www.google.com/#q=Allagash Cuve dIndustrial'
p2430
asS'Great Divide Yeti Imperial Stout'
p2431
(lp2432
g49
aF16.4
aF16.5
aS'https://www.google.com/#q=Great Divide Yeti Imperial Stout'
p2433
asS'Laughing Dog Sneaky Pete Imperial IPA'
p2434
(lp2435
g170
aF14.6
aF14.9
aS'https://www.google.com/#q=Laughing Dog Sneaky Pete Imperial IPA'
p2436
asS'Perennial Vanilla Abraxas'
p2437
(lp2438
g7
aF16.7
aF16.9
aS'https://www.google.com/#q=Perennial Vanilla Abraxas'
p2439
asS'Black Raven Grandfather Raven Imperial Stout'
p2440
(lp2441
g231
aF15.5
aF15.6
aS'https://www.google.com/#q=Black Raven Grandfather Raven Imperial Stout'
p2442
asS'Epic Brainless IPA'
p2443
(lp2444
g461
aF14.8
aF15.0
aS'https://www.google.com/#q=Epic Brainless IPA'
p2445
asS'Grey Sail Stargazer Imperial Stout'
p2446
(lp2447
g106
aF15.7
aF16.1
aS'https://www.google.com/#q=Grey Sail Stargazer Imperial Stout'
p2448
asS'Kona Bourbon Barrel Aged Black Sand Porter'
p2449
(lp2450
g181
aF15.4
aF15.0
aS'https://www.google.com/#q=Kona Bourbon Barrel Aged Black Sand Porter'
p2451
asS'Schramms Apple'
p2452
(lp2453
g19
aF16.8
aF16.8
aS'https://www.google.com/#q=Schramms Apple'
p2454
asS'Parish Dr Hoptagon'
p2455
(lp2456
g91
aF14.5
aF14.7
aS'https://www.google.com/#q=Parish Dr Hoptagon'
p2457
asS'AleWerks Bitter Valentine'
p2458
(lp2459
g379
aF16.2
aF16.3
aS'https://www.google.com/#q=AleWerks Bitter Valentine'
p2460
asS'Epic Double Barrel Big Bad Baptist'
p2461
(lp2462
g461
aF16.3
aF16.9
aS'https://www.google.com/#q=Epic Double Barrel Big Bad Baptist'
p2463
asS'Big Island / Caldera Red Sea Imperial Red Gose'
p2464
(lp2465
g181
aF15.1
aF15.4
aS'https://www.google.com/#q=Big Island / Caldera Red Sea Imperial Red Gose'
p2466
asS'Kane Head High'
p2467
(lp2468
g398
aF15.6
aF16.0
aS'https://www.google.com/#q=Kane Head High'
p2469
asS'Hoppin Frog Barrel Aged BORIS Royale'
p2470
(lp2471
g260
aF16.2
aF16.4
aS'https://www.google.com/#q=Hoppin Frog Barrel Aged BORIS Royale'
p2472
asS'Evil Twin Imperial Biscotti Break Raspberry Umami'
p2473
(lp2474
g83
aF16.4
aF16.3
aS'https://www.google.com/#q=Evil Twin Imperial Biscotti Break Raspberry Umami'
p2475
asS'Bridge Brew Works The Blunt'
p2476
(lp2477
g41
aF13.0
aF12.9
aS'https://www.google.com/#q=Bridge Brew Works The Blunt'
p2478
asS'Great Lakes Chillwave Double IPA'
p2479
(lp2480
g260
aF15.8
aF16.0
aS'https://www.google.com/#q=Great Lakes Chillwave Double IPA'
p2481
asS'Toppling Goliath / Mikkeller Nelson Schmelsson'
p2482
(lp2483
g159
aF15.3
aF15.5
aS'https://www.google.com/#q=Toppling Goliath / Mikkeller Nelson Schmelsson'
p2484
asS'Trinity Decadence Imperial IPA'
p2485
(lp2486
g106
aF14.9
aF14.9
aS'https://www.google.com/#q=Trinity Decadence Imperial IPA'
p2487
asS'AleSmith Speedway Stout - Bourbon Barrel Aged'
p2488
(lp2489
g15
aF17.4
aF17.6
aS'https://www.google.com/#q=AleSmith Speedway Stout - Bourbon Barrel Aged'
p2490
asS'Perrin No Rules Vietnamese Porter'
p2491
(lp2492
g19
aF16.6
aF16.8
aS'https://www.google.com/#q=Perrin No Rules Vietnamese Porter'
p2493
asS'La Cumbre Project Dank'
p2494
(lp2495
g143
aF15.8
aF16.0
aS'https://www.google.com/#q=La Cumbre Project Dank'
p2496
asS'Tallgrass Ethos IPA'
p2497
(lp2498
g53
aF14.7
aF14.9
aS'https://www.google.com/#q=Tallgrass Ethos IPA'
p2499
asS'Hoppers Summerset Saison'
p2500
(lp2501
g461
aF15.3
aF15.6
aS'https://www.google.com/#q=Hoppers Summerset Saison'
p2502
asS'Sockeye Dagger Falls IPA'
p2503
(lp2504
g170
aF14.8
aF15.0
aS'https://www.google.com/#q=Sockeye Dagger Falls IPA'
p2505
asS'Abita Wrought Iron IPA'
p2506
(lp2507
g91
aF14.0
aF14.1
aS'https://www.google.com/#q=Abita Wrought Iron IPA'
p2508
asS'New Glarus Raspberry Tart'
p2509
(lp2510
g57
aF16.2
aF16.4
aS'https://www.google.com/#q=New Glarus Raspberry Tart'
p2511
asS'Westbrook Anfernee - Whiskey Barrel Aged'
p2512
(lp2513
g76
aF15.5
aF15.6
aS'https://www.google.com/#q=Westbrook Anfernee - Whiskey Barrel Aged'
p2514
asS'Superstition Berry White'
p2515
(lp2516
g267
aF17.8
aF17.9
aS'https://www.google.com/#q=Superstition Berry White'
p2517
asS'Lucky Bucket IPA'
p2518
(lp2519
g95
aF14.2
aF14.4
aS'https://www.google.com/#q=Lucky Bucket IPA'
p2520
asS'Kane Overhead'
p2521
(lp2522
g398
aF15.3
aF15.3
aS'https://www.google.com/#q=Kane Overhead'
p2523
asS'Prairie Freds Blend'
p2524
(lp2525
g136
aF16.6
aF16.7
aS'https://www.google.com/#q=Prairie Freds Blend'
p2526
asS'Wicked Weed Garon de Ferme'
p2527
(lp2528
g99
aF16.1
aF16.6
aS'https://www.google.com/#q=Wicked Weed Garon de Ferme'
p2529
asS'Three Floyds Dark Lord Russian Imperial Stout'
p2530
(lp2531
g11
aF17.1
aF17.3
aS'https://www.google.com/#q=Three Floyds Dark Lord Russian Imperial Stout'
p2532
asS'Free State Belgian Muse IPA'
p2533
(lp2534
g53
aF14.8
aF15.1
aS'https://www.google.com/#q=Free State Belgian Muse IPA'
p2535
asS'Prairie Paradise'
p2536
(lp2537
g136
aF16.2
aF16.4
aS'https://www.google.com/#q=Prairie Paradise'
p2538
asS'Diamond Bear Two Term Double IPA'
p2539
(lp2540
g37
aF13.0
aF12.9
aS'https://www.google.com/#q=Diamond Bear Two Term Double IPA'
p2541
asS'Westbrook Mexican Cake Imperial Stout - Pappy Barrel'
p2542
(lp2543
g76
aF17.5
aF17.7
aS'https://www.google.com/#q=Westbrook Mexican Cake Imperial Stout - Pappy Barrel'
p2544
asS'SPB Crowd Control'
p2545
(lp2546
g290
aF16.2
aF16.7
aS'https://www.google.com/#q=SPB Crowd Control'
p2547
asS'Nebraska Reserve Series Responsibly'
p2548
(lp2549
g95
aF14.5
aF14.8
aS'https://www.google.com/#q=Nebraska Reserve Series Responsibly'
p2550
asS'Woodland Empire Beast Moans'
p2551
(lp2552
g170
aF15.0
aF15.2
aS'https://www.google.com/#q=Woodland Empire Beast Moans'
p2553
asS'Maple River Winery Honeycomb Plum'
p2554
(lp2555
g114
aF13.2
aF13.3
aS'https://www.google.com/#q=Maple River Winery Honeycomb Plum'
p2556
asS'Bells Traverse City Whiskey Barrel-Aged Expedition Stout'
p2557
(lp2558
g19
aF16.4
aF16.4
aS'https://www.google.com/#q=Bells Traverse City Whiskey Barrel-Aged Expedition Stout'
p2559
asS'DuClaw Black Jack Stout'
p2560
(lp2561
g417
aF15.0
aF15.2
aS'https://www.google.com/#q=DuClaw Black Jack Stout'
p2562
asS'Big Sky Shake-a-Day Mai Tai IPA'
p2563
(lp2564
g163
aF14.4
aF14.9
aS'https://www.google.com/#q=Big Sky Shake-a-Day Mai Tai IPA'
p2565
asS'Sockeye Hopnoxious Imperial IPA'
p2566
(lp2567
g170
aF15.0
aF15.1
aS'https://www.google.com/#q=Sockeye Hopnoxious Imperial IPA'
p2568
asS'NOLA Piety'
p2569
(lp2570
g91
aF15.4
aF16.1
aS'https://www.google.com/#q=NOLA Piety'
p2571
asS'OEC Aeris'
p2572
(lp2573
g45
aF15.7
aF15.8
aS'https://www.google.com/#q=OEC Aeris'
p2574
asS'Moonlight Meadery Destiny'
p2575
(lp2576
g241
aF17.2
aF17.4
aS'https://www.google.com/#q=Moonlight Meadery Destiny'
p2577
asS'Marble Imperial Red Ale'
p2578
(lp2579
g143
aF14.9
aF15.1
aS'https://www.google.com/#q=Marble Imperial Red Ale'
p2580
asS'Black Tooth Hot Streak IPA'
p2581
(lp2582
g68
aF13.8
aF14.0
aS'https://www.google.com/#q=Black Tooth Hot Streak IPA'
p2583
asS'McFate Imperial Candy Bar Stout - Barrel Aged'
p2584
(lp2585
g267
aF17.2
aF16.9
aS'https://www.google.com/#q=McFate Imperial Candy Bar Stout - Barrel Aged'
p2586
asS'Westbrook Siberian Black Magic Panther - Apple Brandy Barrel'
p2587
(lp2588
g76
aF16.0
aF16.3
aS'https://www.google.com/#q=Westbrook Siberian Black Magic Panther - Apple Brandy Barrel'
p2589
asS'Toppling Goliath ReGifter Double IPA'
p2590
(lp2591
g159
aF15.8
aF16.0
aS'https://www.google.com/#q=Toppling Goliath ReGifter Double IPA'
p2592
asS'Triumph Imperial Stout'
p2593
(lp2594
g398
aF15.2
aF15.1
aS'https://www.google.com/#q=Triumph Imperial Stout'
p2595
asS'Allagash St. Klippenstein'
p2596
(lp2597
g448
aF15.7
aF15.9
aS'https://www.google.com/#q=Allagash St. Klippenstein'
p2598
asS'Kettle House Olde Bongwater Hemp Porter'
p2599
(lp2600
g163
aF14.4
aF14.8
aS'https://www.google.com/#q=Kettle House Olde Bongwater Hemp Porter'
p2601
asS'Three Floyds Bourbon Barrel Aged Dark Lord De Muerte'
p2602
(lp2603
g11
aF16.3
aF16.4
aS'https://www.google.com/#q=Three Floyds Bourbon Barrel Aged Dark Lord De Muerte'
p2604
asS'Three Floyds Blakkr'
p2605
(lp2606
g11
aF15.8
aF15.9
aS'https://www.google.com/#q=Three Floyds Blakkr'
p2607
asS'Good People Fatso Imperial Stout'
p2608
(lp2609
g306
aF14.7
aF14.9
aS'https://www.google.com/#q=Good People Fatso Imperial Stout'
p2610
asS'Dogfish Head Indian Brown Ale'
p2611
(lp2612
g366
aF15.0
aF15.3
aS'https://www.google.com/#q=Dogfish Head Indian Brown Ale'
p2613
asS'Big Island Holy Humulus'
p2614
(lp2615
g181
aF14.5
aF14.4
aS'https://www.google.com/#q=Big Island Holy Humulus'
p2616
asS'Jester King Bire de Syrah'
p2617
(lp2618
g72
aF15.9
aF16.2
aS'https://www.google.com/#q=Jester King Bire de Syrah'
p2619
asS'Abita Bourbon Street Coffee Stout'
p2620
(lp2621
g91
aF14.7
aF14.7
aS'https://www.google.com/#q=Abita Bourbon Street Coffee Stout'
p2622
asS'COAST The Boy King Double IPA'
p2623
(lp2624
g76
aF15.8
aF15.9
aS'https://www.google.com/#q=COAST The Boy King Double IPA'
p2625
asS'Stoneface Hopulization'
p2626
(lp2627
g241
aF15.7
aF15.8
aS'https://www.google.com/#q=Stoneface Hopulization'
p2628
asS'Against the Grain 35K Stout'
p2629
(lp2630
g23
aF14.8
aF14.9
aS'https://www.google.com/#q=Against the Grain 35K Stout'
p2631
asS'Melvin Drunken Master'
p2632
(lp2633
g68
aF15.3
aF15.4
aS'https://www.google.com/#q=Melvin Drunken Master'
p2634
asS'Chicago Hardway IPA'
p2635
(lp2636
g27
aF14.0
aF14.2
aS'https://www.google.com/#q=Chicago Hardway IPA'
p2637
asS'Cascade Noyaux'
p2638
(lp2639
g147
aF15.9
aF16.2
aS'https://www.google.com/#q=Cascade Noyaux'
p2640
asS'Side Project Bleuet du Fermier'
p2641
(lp2642
g7
aF17.0
aF17.4
aS'https://www.google.com/#q=Side Project Bleuet du Fermier'
p2643
asS'Selins Grove Bourbon St. Fillans Wee Heavy'
p2644
(lp2645
g3
aF16.8
aF16.9
aS'https://www.google.com/#q=Selins Grove Bourbon St. Fillans Wee Heavy'
p2646
asS'Schramms Red Agnes'
p2647
(lp2648
g19
aF17.8
aF18.1
aS'https://www.google.com/#q=Schramms Red Agnes'
p2649
asS'Prairie Merica'
p2650
(lp2651
g136
aF15.3
aF15.6
aS'https://www.google.com/#q=Prairie Merica'
p2652
asS'Jackie Os Iced Coffee Apparition'
p2653
(lp2654
g260
aF17.2
aF17.5
aS'https://www.google.com/#q=Jackie Os Iced Coffee Apparition'
p2655
asS'Schramms Cranberry'
p2656
(lp2657
g19
aF17.8
aF17.9
aS'https://www.google.com/#q=Schramms Cranberry'
p2658
asS'Healthberry Farm Honey River Tulip Poplar Mead'
p2659
(lp2660
g41
aF14.1
aF14.7
aS'https://www.google.com/#q=Healthberry Farm Honey River Tulip Poplar Mead'
p2661
asS'Joseph James Im Out Imperial Stout'
p2662
(lp2663
g27
aF14.2
aF14.4
aS'https://www.google.com/#q=Joseph James Im Out Imperial Stout'
p2664
asS'Stillwater Beer Table - Table Beer'
p2665
(lp2666
g417
aF15.0
aF15.3
aS'https://www.google.com/#q=Stillwater Beer Table - Table Beer'
p2667
asS'Stoneface RIS'
p2668
(lp2669
g241
aF15.7
aF15.9
aS'https://www.google.com/#q=Stoneface RIS'
p2670
asS'Tenaya Creek Old Jackalope Barleywine'
p2671
(lp2672
g27
aF15.0
aF15.2
aS'https://www.google.com/#q=Tenaya Creek Old Jackalope Barleywine'
p2673
asS'Terrapin Rye Squared'
p2674
(lp2675
g347
aF15.0
aF15.3
aS'https://www.google.com/#q=Terrapin Rye Squared'
p2676
asS'Greenbrier Valley Wild & Wonderful Series #2: Hefeweizen'
p2677
(lp2678
g41
aF13.5
aF13.0
aS'https://www.google.com/#q=Greenbrier Valley Wild & Wonderful Series #2: Hefeweizen'
p2679
asS'AleWerks Cafe Royale'
p2680
(lp2681
g379
aF15.8
aF16.0
aS'https://www.google.com/#q=AleWerks Cafe Royale'
p2682
asS'Salty Nut Dahkness Stout'
p2683
(lp2684
g306
aF14.6
aF14.3
aS'https://www.google.com/#q=Salty Nut Dahkness Stout'
p2685
asS'Prairie Pirate Noir'
p2686
(lp2687
g136
aF15.5
aF15.7
aS'https://www.google.com/#q=Prairie Pirate Noir'
p2688
asS'Westbrook Siberian Black Magic Panther - Bourbon Barrel'
p2689
(lp2690
g76
aF15.8
aF15.9
aS'https://www.google.com/#q=Westbrook Siberian Black Magic Panther - Bourbon Barrel'
p2691
asS'Surly Furious'
p2692
(lp2693
g87
aF15.9
aF16.1
aS'https://www.google.com/#q=Surly Furious'
p2694
asS'Fairhope Painted Black IPA'
p2695
(lp2696
g306
aF14.7
aF14.9
aS'https://www.google.com/#q=Fairhope Painted Black IPA'
p2697
asS'Foothills Seeing Double IPA'
p2698
(lp2699
g99
aF15.3
aF15.6
aS'https://www.google.com/#q=Foothills Seeing Double IPA'
p2700
asS'Crow Peak Bear Butte Brown Ale'
p2701
(lp2702
g110
aF13.3
aF13.4
aS'https://www.google.com/#q=Crow Peak Bear Butte Brown Ale'
p2703
asS'Crow Peak Roughlocktoberfest'
p2704
(lp2705
g110
aF13.9
aF15.2
aS'https://www.google.com/#q=Crow Peak Roughlocktoberfest'
p2706
asS'Jester King Nocturn Chrysalis (Batch 2+)'
p2707
(lp2708
g72
aF15.5
aF15.7
aS'https://www.google.com/#q=Jester King Nocturn Chrysalis (Batch 2+)'
p2709
asS'Foothills Baltic Porter'
p2710
(lp2711
g99
aF15.4
aF15.7
aS'https://www.google.com/#q=Foothills Baltic Porter'
p2712
asS'Tenaya Creek Imperial Stout'
p2713
(lp2714
g27
aF15.0
aF15.2
aS'https://www.google.com/#q=Tenaya Creek Imperial Stout'
p2715
asS'Against the Grain London Balling'
p2716
(lp2717
g23
aF15.1
aF15.4
aS'https://www.google.com/#q=Against the Grain London Balling'
p2718
asS'Maine Beer King Titus'
p2719
(lp2720
g448
aF15.5
aF15.6
aS'https://www.google.com/#q=Maine Beer King Titus'
p2721
asS'Trillium Fort Point Pale Ale - Galaxy Dry Hopped'
p2722
(lp2723
g151
aF16.4
aF16.5
aS'https://www.google.com/#q=Trillium Fort Point Pale Ale - Galaxy Dry Hopped'
p2724
asS'Cycle / 3 Sons Rare Scooop'
p2725
(lp2726
g155
aF18.1
aF18.0
aS'https://www.google.com/#q=Cycle / 3 Sons Rare Scooop'
p2727
asS'Triumph Rauchweizen'
p2728
(lp2729
g398
aF16.2
aF16.4
aS'https://www.google.com/#q=Triumph Rauchweizen'
p2730
asS'Straight To Ale Verns Wheat Wine'
p2731
(lp2732
g306
aF14.2
aF14.5
aS'https://www.google.com/#q=Straight To Ale Verns Wheat Wine'
p2733
asS'NOLA Lowerline'
p2734
(lp2735
g91
aF15.9
aF16.3
aS'https://www.google.com/#q=NOLA Lowerline'
p2736
asS'Vinos Rock Hopera Imperial IPA'
p2737
(lp2738
g37
aF14.6
aF14.4
aS'https://www.google.com/#q=Vinos Rock Hopera Imperial IPA'
p2739
asS'Straight To Ale Laika Russian Imperial Stout'
p2740
(lp2741
g306
aF15.2
aF15.2
aS'https://www.google.com/#q=Straight To Ale Laika Russian Imperial Stout'
p2742
asS'Holy Mountain Misre au Borinage'
p2743
(lp2744
g231
aF15.9
aF16.4
aS'https://www.google.com/#q=Holy Mountain Misre au Borinage'
p2745
asS'Big Sky Ivan the Terrible Imperial Stout - Bourbon Barrel'
p2746
(lp2747
g163
aF15.9
aF16.2
aS'https://www.google.com/#q=Big Sky Ivan the Terrible Imperial Stout - Bourbon Barrel'
p2748
asS'Yazoo Embrace The Funk Series: Citra Luxe'
p2749
(lp2750
g64
aF15.3
aF15.6
aS'https://www.google.com/#q=Yazoo Embrace The Funk Series: Citra Luxe'
p2751
asS'Blind Tiger Java Porter'
p2752
(lp2753
g53
aF14.4
aF14.7
aS'https://www.google.com/#q=Blind Tiger Java Porter'
p2754
asS'Creature Comforts Tropiclia'
p2755
(lp2756
g347
aF15.9
aF16.1
aS'https://www.google.com/#q=Creature Comforts Tropiclia'
p2757
asS'Epic Smoked & Oaked Belgian-Style Ale'
p2758
(lp2759
g461
aF14.7
aF14.9
aS'https://www.google.com/#q=Epic Smoked & Oaked Belgian-Style Ale'
p2760
asS'Great Basin Tectonic Event IPA'
p2761
(lp2762
g27
aF14.3
aF14.9
aS'https://www.google.com/#q=Great Basin Tectonic Event IPA'
p2763
asS'Evil Twin Even More Jesus Port'
p2764
(lp2765
g83
aF16.1
aF16.1
aS'https://www.google.com/#q=Evil Twin Even More Jesus Port'
p2766
asS'Lakewood Bourbon Barrel Temptress (BBT)'
p2767
(lp2768
g72
aF15.7
aF16.0
aS'https://www.google.com/#q=Lakewood Bourbon Barrel Temptress (BBT)'
p2769
asS'Grand Teton Brewers Series No. 2 - Brett Saison'
p2770
(lp2771
g170
aF15.7
aF16.1
aS'https://www.google.com/#q=Grand Teton Brewers Series No. 2 - Brett Saison'
p2772
asS'La Cumbre Elevated IPA'
p2773
(lp2774
g143
aF16.1
aF16.3
aS'https://www.google.com/#q=La Cumbre Elevated IPA'
p2775
asS'SPB Sinister Minister'
p2776
(lp2777
g290
aF14.5
aF14.9
aS'https://www.google.com/#q=SPB Sinister Minister'
p2778
asS'Maui Brewing Imperial CoCoNut PorTeR'
p2779
(lp2780
g181
aF15.2
aF15.5
aS'https://www.google.com/#q=Maui Brewing Imperial CoCoNut PorTeR'
p2781
asS'Ottos Bourbon-Barrel Aged Jolly Roger Imperial Stout'
p2782
(lp2783
g3
aF16.9
aF16.9
aS'https://www.google.com/#q=Ottos Bourbon-Barrel Aged Jolly Roger Imperial Stout'
p2784
asS'Hill Farmstead Double Galaxy'
p2785
(lp2786
g188
aF16.5
aF16.9
aS'https://www.google.com/#q=Hill Farmstead Double Galaxy'
p2787
asS'Surly / Amager Todd - The Axe Man (Surly Version)'
p2788
(lp2789
g87
aF16.0
aF16.3
aS'https://www.google.com/#q=Surly / Amager Todd - The Axe Man (Surly Version)'
p2790
asS'Kona Black Sand Porter'
p2791
(lp2792
g181
aF14.0
aF14.2
aS'https://www.google.com/#q=Kona Black Sand Porter'
p2793
asS'Tree House Haze'
p2794
(lp2795
g151
aF16.4
aF16.6
aS'https://www.google.com/#q=Tree House Haze'
p2796
asS'Funk Factory Geuzeria / Oso Frampaars'
p2797
(lp2798
g57
aF17.6
aF17.8
aS'https://www.google.com/#q=Funk Factory Geuzeria / Oso Frampaars'
p2799
asS'Founders Imperial Stout'
p2800
(lp2801
g19
aF16.4
aF16.5
aS'https://www.google.com/#q=Founders Imperial Stout'
p2802
asS'Abita Macchiato Espresso Milk Stout'
p2803
(lp2804
g91
aF14.6
aF14.7
aS'https://www.google.com/#q=Abita Macchiato Espresso Milk Stout'
p2805
asS'Grassroots Legitimacy'
p2806
(lp2807
g188
aF16.4
aF16.6
aS'https://www.google.com/#q=Grassroots Legitimacy'
p2808
asS'Honolulu Beerworks South Shore Stout'
p2809
(lp2810
g181
aF14.6
aF14.5
aS'https://www.google.com/#q=Honolulu Beerworks South Shore Stout'
p2811
asS'Evil Twin Double Barrel Jesus'
p2812
(lp2813
g83
aF17.1
aF17.1
aS'https://www.google.com/#q=Evil Twin Double Barrel Jesus'
p2814
asS'Trillium Melcher Street IPA - Double Dry Hopped'
p2815
(lp2816
g151
aF16.8
aF16.9
aS'https://www.google.com/#q=Trillium Melcher Street IPA - Double Dry Hopped'
p2817
asS'Joseph James Baby J German Chocolate Cake Stout'
p2818
(lp2819
g27
aF15.3
aF15.1
aS'https://www.google.com/#q=Joseph James Baby J German Chocolate Cake Stout'
p2820
asS'De Garde Imperial Purple Raz Bu'
p2821
(lp2822
g147
aF16.7
aF16.7
aS'https://www.google.com/#q=De Garde Imperial Purple Raz Bu'
p2823
asS'Perennial Abraxas'
p2824
(lp2825
g7
aF16.3
aF16.5
aS'https://www.google.com/#q=Perennial Abraxas'
p2826
asS'WeldWerks Coffee Maple Achromatic'
p2827
(lp2828
g49
aF17.3
aF17.3
aS'https://www.google.com/#q=WeldWerks Coffee Maple Achromatic'
p2829
asS'Trillium Vicinity'
p2830
(lp2831
g151
aF16.6
aF16.8
aS'https://www.google.com/#q=Trillium Vicinity'
p2832
asS'Crooked Letter Mystery Romp'
p2833
(lp2834
g290
aF15.4
aF15.7
aS'https://www.google.com/#q=Crooked Letter Mystery Romp'
p2835
asS'Fremont Dark Star - Bourbon Barrel Coffee Edition'
p2836
(lp2837
g231
aF16.3
aF16.5
aS'https://www.google.com/#q=Fremont Dark Star - Bourbon Barrel Coffee Edition'
p2838
asS'Cycle Wednesday - 2016'
p2839
(lp2840
g155
aF16.6
aF16.5
aS'https://www.google.com/#q=Cycle Wednesday - 2016'
p2841
asS'Kane Sunday Brunch'
p2842
(lp2843
g398
aF16.0
aF16.3
aS'https://www.google.com/#q=Kane Sunday Brunch'
p2844
asS'Sweetwater Dank Tank Some Strange'
p2845
(lp2846
g347
aF15.4
aF15.7
aS'https://www.google.com/#q=Sweetwater Dank Tank Some Strange'
p2847
asS'Morgantown Coal City Stout'
p2848
(lp2849
g41
aF14.2
aF14.1
aS'https://www.google.com/#q=Morgantown Coal City Stout'
p2850
asS'Superstition Framboesa Atando'
p2851
(lp2852
g267
aF17.5
aF17.8
aS'https://www.google.com/#q=Superstition Framboesa Atando'
p2853
asS'COAST Blackbeerd Imperial Stout - Jack Daniels Barrel'
p2854
(lp2855
g76
aF15.9
aF16.0
aS'https://www.google.com/#q=COAST Blackbeerd Imperial Stout - Jack Daniels Barrel'
p2856
asS'Newport Storm Cyclone Series Zach'
p2857
(lp2858
g106
aF14.6
aF15.2
aS'https://www.google.com/#q=Newport Storm Cyclone Series Zach'
p2859
asS'Black Tooth Indian Paintbrush Ale'
p2860
(lp2861
g68
aF13.7
aF13.7
aS'https://www.google.com/#q=Black Tooth Indian Paintbrush Ale'
p2862
asS'Central Waters Ardea Insignis Imperial Stout'
p2863
(lp2864
g57
aF18.3
aF18.5
aS'https://www.google.com/#q=Central Waters Ardea Insignis Imperial Stout'
p2865
asS'Laughing Sun Cosmic Owl Belgian Pale Ale'
p2866
(lp2867
g114
aF13.3
aF13.8
aS'https://www.google.com/#q=Laughing Sun Cosmic Owl Belgian Pale Ale'
p2868
asS'Four Peaks Double Knot'
p2869
(lp2870
g267
aF16.2
aF16.6
aS'https://www.google.com/#q=Four Peaks Double Knot'
p2871
asS'Iron Hill Oak Aged Quad'
p2872
(lp2873
g366
aF15.6
aF15.9
aS'https://www.google.com/#q=Iron Hill Oak Aged Quad'
p2874
asS'Side Project Abricot du Fermier'
p2875
(lp2876
g7
aF16.5
aF16.7
aS'https://www.google.com/#q=Side Project Abricot du Fermier'
p2877
asS'Free State C4 Imperial Black IPA'
p2878
(lp2879
g53
aF15.3
aF15.6
aS'https://www.google.com/#q=Free State C4 Imperial Black IPA'
p2880
asS'Hardywood Apple Brandy Barrel GBS (Gingerbread Stout)'
p2881
(lp2882
g379
aF16.0
aF16.2
aS'https://www.google.com/#q=Hardywood Apple Brandy Barrel GBS (Gingerbread Stout)'
p2883
asS'Right Proper Kodachrome Dream(ing)'
p2884
(lp2885
g174
aF15.1
aF14.9
aS'https://www.google.com/#q=Right Proper Kodachrome Dream(ing)'
p2886
asS'La Cumbre Malpais Stout'
p2887
(lp2888
g143
aF15.5
aF15.5
aS'https://www.google.com/#q=La Cumbre Malpais Stout'
p2889
asS'Proclamation Tendril'
p2890
(lp2891
g106
aF14.3
aF14.8
aS'https://www.google.com/#q=Proclamation Tendril'
p2892
asS'Hoppin Frog DORIS The Destroyer'
p2893
(lp2894
g260
aF16.3
aF16.4
aS'https://www.google.com/#q=Hoppin Frog DORIS The Destroyer'
p2895
asS'Westbrook 4th Anniversary - Bourbon Barrel Aged'
p2896
(lp2897
g76
aF16.8
aF17.0
aS'https://www.google.com/#q=Westbrook 4th Anniversary - Bourbon Barrel Aged'
p2898
asS'Crow Peak Eleventh Hour IPA'
p2899
(lp2900
g110
aF12.6
aF12.7
aS'https://www.google.com/#q=Crow Peak Eleventh Hour IPA'
p2901
asS'Cycle &+'
p2902
(lp2903
g155
aF16.6
aF16.7
aS'https://www.google.com/#q=Cycle &+'
p2904
asS'Flying Fish Exit 16 WE Wild Rice Double IPA'
p2905
(lp2906
g398
aF15.1
aF15.4
aS'https://www.google.com/#q=Flying Fish Exit 16 WE Wild Rice Double IPA'
p2907
asS'Hill Farmstead Everett'
p2908
(lp2909
g188
aF16.6
aF16.7
aS'https://www.google.com/#q=Hill Farmstead Everett'
p2910
asS'Montana Brewing Custers Last Stout'
p2911
(lp2912
g163
aF14.3
aF14.7
aS'https://www.google.com/#q=Montana Brewing Custers Last Stout'
p2913
asS'Kane Silent Nights'
p2914
(lp2915
g398
aF15.4
aF15.5
aS'https://www.google.com/#q=Kane Silent Nights'
p2916
asS'Half Acre Beer Hates Astronauts'
p2917
(lp2918
g274
aF16.2
aF16.6
aS'https://www.google.com/#q=Half Acre Beer Hates Astronauts'
p2919
asS'Madhouse Carpe Diem'
p2920
(lp2921
g159
aF16.0
aF16.1
aS'https://www.google.com/#q=Madhouse Carpe Diem'
p2922
asS'Deschutes The Abyss'
p2923
(lp2924
g147
aF16.9
aF17.0
aS'https://www.google.com/#q=Deschutes The Abyss'
p2925
asS'Hill Farmstead Flora - Plum'
p2926
(lp2927
g188
aF16.4
aF16.7
aS'https://www.google.com/#q=Hill Farmstead Flora - Plum'
p2928
asS'Real Ale The Kraken'
p2929
(lp2930
g72
aF15.6
aF15.7
aS'https://www.google.com/#q=Real Ale The Kraken'
p2931
asS'Kane A Night To End All Dawns - Coconut'
p2932
(lp2933
g398
aF16.7
aF17.2
aS'https://www.google.com/#q=Kane A Night To End All Dawns - Coconut'
p2934
asS'Proclamation zzzlumber'
p2935
(lp2936
g106
aF14.7
aF15.1
aS'https://www.google.com/#q=Proclamation zzzlumber'
p2937
asS'Trillium Summer Street IPA - Double Dry Hopped'
p2938
(lp2939
g151
aF16.4
aF16.6
aS'https://www.google.com/#q=Trillium Summer Street IPA - Double Dry Hopped'
p2940
asS'West Sixth IPA'
p2941
(lp2942
g23
aF14.4
aF14.5
aS'https://www.google.com/#q=West Sixth IPA'
p2943
asS'Stillwater Gose Gone Wild'
p2944
(lp2945
g417
aF15.8
aF16.1
aS'https://www.google.com/#q=Stillwater Gose Gone Wild'
p2946
asS'Tenaya Creek Tandem Double India Pale Ale'
p2947
(lp2948
g27
aF13.8
aF13.9
aS'https://www.google.com/#q=Tenaya Creek Tandem Double India Pale Ale'
p2949
asS'Old Schoolhouse Imperial Stout'
p2950
(lp2951
g231
aF15.4
aF15.5
aS'https://www.google.com/#q=Old Schoolhouse Imperial Stout'
p2952
asS'Bells Black Note Stout'
p2953
(lp2954
g19
aF17.3
aF17.5
aS'https://www.google.com/#q=Bells Black Note Stout'
p2955
asS'Straight To Ale He Aint Heffe'
p2956
(lp2957
g306
aF14.4
aF14.2
aS'https://www.google.com/#q=Straight To Ale He Aint Heffe'
p2958
asS'Warped Wing Baltic Argonaut'
p2959
(lp2960
g260
aF16.9
aF17.3
aS'https://www.google.com/#q=Warped Wing Baltic Argonaut'
p2961
asS'Crow Peak Easy Livin Summer Ale'
p2962
(lp2963
g110
aF12.4
aF12.6
aS'https://www.google.com/#q=Crow Peak Easy Livin Summer Ale'
p2964
asS'Melvin Shaolin Brew IPA'
p2965
(lp2966
g68
aF16.3
aF16.4
aS'https://www.google.com/#q=Melvin Shaolin Brew IPA'
p2967
asS'Firehouse Buffalo Bitter'
p2968
(lp2969
g110
aF12.5
aF12.4
aS'https://www.google.com/#q=Firehouse Buffalo Bitter'
p2970
asS'Westbrook Mexican Cake Imperial Stout - Coffee'
p2971
(lp2972
g76
aF16.2
aF16.4
aS'https://www.google.com/#q=Westbrook Mexican Cake Imperial Stout - Coffee'
p2973
asS'Firehouse Brewers Golden'
p2974
(lp2975
g110
aF9.3
aF9.0
aS'https://www.google.com/#q=Firehouse Brewers Golden'
p2976
asS'Anchorage / Jolly Pumpkin Calabaza Boreal'
p2977
(lp2978
g313
aF15.4
aF15.6
aS'https://www.google.com/#q=Anchorage / Jolly Pumpkin Calabaza Boreal'
p2979
asS'Bells Bourbon Barrel-Aged Expedition Stout'
p2980
(lp2981
g19
aF17.0
aF17.4
aS'https://www.google.com/#q=Bells Bourbon Barrel-Aged Expedition Stout'
p2982
asS'Tenaya Creek Hop Ride IPA'
p2983
(lp2984
g27
aF14.0
aF14.3
aS'https://www.google.com/#q=Tenaya Creek Hop Ride IPA'
p2985
asS'Kenco Farms Blue Mead'
p2986
(lp2987
g41
aF14.1
aF14.1
aS'https://www.google.com/#q=Kenco Farms Blue Mead'
p2988
asS'Lickinghole Creek Heir Apparent'
p2989
(lp2990
g379
aF15.6
aF15.7
aS'https://www.google.com/#q=Lickinghole Creek Heir Apparent'
p2991
asS'Allagash Coolship Red'
p2992
(lp2993
g448
aF15.7
aF16.0
aS'https://www.google.com/#q=Allagash Coolship Red'
p2994
asS'Maui Brewing Heaven & Hell Barleywine'
p2995
(lp2996
g181
aF14.8
aF15.0
aS'https://www.google.com/#q=Maui Brewing Heaven & Hell Barleywine'
p2997
asS'Saint Arnold Bishops Barrel #8'
p2998
(lp2999
g72
aF16.0
aF16.7
aS'https://www.google.com/#q=Saint Arnold Bishops Barrel #8'
p3000
asS'Maui Brewing Cascadian Dark Belgian Rye IPA'
p3001
(lp3002
g181
aF14.8
aF15.3
aS'https://www.google.com/#q=Maui Brewing Cascadian Dark Belgian Rye IPA'
p3003
asS'Grand Teton Trout Hop Black IPA'
p3004
(lp3005
g170
aF14.6
aF14.7
aS'https://www.google.com/#q=Grand Teton Trout Hop Black IPA'
p3006
asS'Saint Arnold Divine Reserve #15'
p3007
(lp3008
g72
aF15.5
aF15.7
aS'https://www.google.com/#q=Saint Arnold Divine Reserve #15'
p3009
asS'Trinity Russian Imperial Stout'
p3010
(lp3011
g106
aF13.7
aF13.5
aS'https://www.google.com/#q=Trinity Russian Imperial Stout'
p3012
asS'Uinta Crooked Line Cockeyed Cooper'
p3013
(lp3014
g461
aF15.0
aF15.2
aS'https://www.google.com/#q=Uinta Crooked Line Cockeyed Cooper'
p3015
asS'Carton Shipwreck Porter'
p3016
(lp3017
g398
aF15.8
aF16.1
aS'https://www.google.com/#q=Carton Shipwreck Porter'
p3018
asS'Anchorage Galaxy White IPA'
p3019
(lp3020
g313
aF15.3
aF15.6
aS'https://www.google.com/#q=Anchorage Galaxy White IPA'
p3021
asS'Marble Bourbon Barrel-Aged Imperial Stout'
p3022
(lp3023
g143
aF15.4
aF15.5
aS'https://www.google.com/#q=Marble Bourbon Barrel-Aged Imperial Stout'
p3024
asS'Barley Johns Rosies Ale'
p3025
(lp3026
g87
aF16.7
aF17.1
aS'https://www.google.com/#q=Barley Johns Rosies Ale'
p3027
asS'Bells Two Hearted Ale'
p3028
(lp3029
g19
aF16.3
aF16.6
aS'https://www.google.com/#q=Bells Two Hearted Ale'
p3030
asS'Bayou Teche Loup Garou'
p3031
(lp3032
g91
aF15.0
aF15.1
aS'https://www.google.com/#q=Bayou Teche Loup Garou'
p3033
asS'Reaver Beach The Kracken'
p3034
(lp3035
g379
aF16.3
aF16.9
aS'https://www.google.com/#q=Reaver Beach The Kracken'
p3036
asS'Fremont Brew 1000'
p3037
(lp3038
g231
aF16.6
aF16.9
aS'https://www.google.com/#q=Fremont Brew 1000'
p3039
asS'Lost Abbey Duck Duck Gooze'
p3040
(lp3041
g15
aF16.5
aF16.9
aS'https://www.google.com/#q=Lost Abbey Duck Duck Gooze'
p3042
asS'Fargo Wind Swept Belgian Witbier'
p3043
(lp3044
g114
aF12.5
aF12.6
aS'https://www.google.com/#q=Fargo Wind Swept Belgian Witbier'
p3045
asS'Alaskan Pilot Series: Barley Wine Ale'
p3046
(lp3047
g313
aF15.3
aF15.6
aS'https://www.google.com/#q=Alaskan Pilot Series: Barley Wine Ale'
p3048
asS'Toppling Goliath Hopsmack!'
p3049
(lp3050
g159
aF15.1
aF15.4
aS'https://www.google.com/#q=Toppling Goliath Hopsmack!'
p3051
asS'Arizona Wilderness Picacho Pecan Pie Brown Ale'
p3052
(lp3053
g267
aF16.9
aF17.1
aS'https://www.google.com/#q=Arizona Wilderness Picacho Pecan Pie Brown Ale'
p3054
asS'Epic Imperial IPA'
p3055
(lp3056
g461
aF15.0
aF15.1
aS'https://www.google.com/#q=Epic Imperial IPA'
p3057
asS'Squatters Outer Darkness'
p3058
(lp3059
g461
aF15.7
aF15.9
aS'https://www.google.com/#q=Squatters Outer Darkness'
p3060
asS'Three Floyds Ronaldo (2016 Dark Lord Variant)'
p3061
(lp3062
g11
aF16.2
aF16.3
aS'https://www.google.com/#q=Three Floyds Ronaldo (2016 Dark Lord Variant)'
p3063
asS'Chama River Imperial Red'
p3064
(lp3065
g143
aF15.3
aF15.6
aS'https://www.google.com/#q=Chama River Imperial Red'
p3066
asS'Parish Envie Pale Ale'
p3067
(lp3068
g91
aF14.2
aF14.5
aS'https://www.google.com/#q=Parish Envie Pale Ale'
p3069
asS'Westbrook 2nd Anniversary Capn Skoons Ballistic Stout - Bourbon Barrel'
p3070
(lp3071
g76
aF16.0
aF16.3
aS'https://www.google.com/#q=Westbrook 2nd Anniversary Capn Skoons Ballistic Stout - Bourbon Barrel'
p3072
asS'Red Rock Paardebloem'
p3073
(lp3074
g461
aF15.5
aF15.8
aS'https://www.google.com/#q=Red Rock Paardebloem'
p3075
asS'Crooked Stave Raspberry Origins'
p3076
(lp3077
g49
aF15.9
aF16.1
aS'https://www.google.com/#q=Crooked Stave Raspberry Origins'
p3078
asS'Parish Grand Reserve'
p3079
(lp3080
g91
aF15.0
aF15.5
aS'https://www.google.com/#q=Parish Grand Reserve'
p3081
asS'Uinta Crooked Line Oak Jacked Imperial Pumpkin'
p3082
(lp3083
g461
aF14.9
aF15.0
aS'https://www.google.com/#q=Uinta Crooked Line Oak Jacked Imperial Pumpkin'
p3084
asS'Tallgrass Big Ricc'
p3085
(lp3086
g53
aF14.8
aF14.8
aS'https://www.google.com/#q=Tallgrass Big Ricc'
p3087
asS'Union Station Vanilla Bean Porter'
p3088
(lp3089
g106
aF15.0
aF15.5
aS'https://www.google.com/#q=Union Station Vanilla Bean Porter'
p3090
asS'Goose Island Bourbon County Barleywine'
p3091
(lp3092
g274
aF16.5
aF16.8
aS'https://www.google.com/#q=Goose Island Bourbon County Barleywine'
p3093
asS'Brenner Witchcraft Imperial Stout'
p3094
(lp3095
g57
aF17.1
aF17.3
aS'https://www.google.com/#q=Brenner Witchcraft Imperial Stout'
p3096
asS'Holy Mountain Midnight Still - Cherry Rye'
p3097
(lp3098
g231
aF15.9
aF16.2
aS'https://www.google.com/#q=Holy Mountain Midnight Still - Cherry Rye'
p3099
asS'Kuhnhenn Bourbon Barrel French Toast Mead'
p3100
(lp3101
g19
aF16.8
aF17.0
aS'https://www.google.com/#q=Kuhnhenn Bourbon Barrel French Toast Mead'
p3102
asS'Great Lakes Blackout Stout - Barrel-Aged'
p3103
(lp3104
g260
aF16.3
aF16.6
aS'https://www.google.com/#q=Great Lakes Blackout Stout - Barrel-Aged'
p3105
asS'Central Waters Black Gold'
p3106
(lp3107
g57
aF15.9
aF16.1
aS'https://www.google.com/#q=Central Waters Black Gold'
p3108
asS'Squatters Fifth Element'
p3109
(lp3110
g461
aF16.1
aF16.5
aS'https://www.google.com/#q=Squatters Fifth Element'
p3111
asS'Hair of the Dog Adam from the Wood'
p3112
(lp3113
g147
aF16.2
aF16.6
aS'https://www.google.com/#q=Hair of the Dog Adam from the Wood'
p3114
asS'Grand Teton Black Cauldron Imperial Stout'
p3115
(lp3116
g170
aF15.0
aF15.2
aS'https://www.google.com/#q=Grand Teton Black Cauldron Imperial Stout'
p3117
asS'Lost Abbey Box Set: Track #6 (Highway to Hell)'
p3118
(lp3119
g15
aF16.7
aF17.0
aS'https://www.google.com/#q=Lost Abbey Box Set: Track #6 (Highway to Hell)'
p3120
asS'Anchorage Love Buzz Saison'
p3121
(lp3122
g313
aF16.0
aF16.2
aS'https://www.google.com/#q=Anchorage Love Buzz Saison'
p3123
asS'North End Dawks Classic Porter'
p3124
(lp3125
g41
aF13.6
aF13.7
aS'https://www.google.com/#q=North End Dawks Classic Porter'
p3126
asS'Tyranena BGW Dirty Old Man'
p3127
(lp3128
g57
aF15.5
aF15.8
aS'https://www.google.com/#q=Tyranena BGW Dirty Old Man'
p3129
asS'Bullfrog Le Roar Grrrz Kriek'
p3130
(lp3131
g3
aF16.0
aF16.3
aS'https://www.google.com/#q=Bullfrog Le Roar Grrrz Kriek'
p3132
asS'Lucky Bucket Certified Evil 2010'
p3133
(lp3134
g95
aF13.7
aF13.7
aS'https://www.google.com/#q=Lucky Bucket Certified Evil 2010'
p3135
asS'Maui Brewing Aloha Baktun'
p3136
(lp3137
g181
aF13.9
aF13.9
aS'https://www.google.com/#q=Maui Brewing Aloha Baktun'
p3138
asS'Perennial Coffee Abraxas'
p3139
(lp3140
g7
aF16.1
aF16.2
aS'https://www.google.com/#q=Perennial Coffee Abraxas'
p3141
asS'Arizona Wilderness DC Mountain Double IPA'
p3142
(lp3143
g267
aF16.6
aF16.8
aS'https://www.google.com/#q=Arizona Wilderness DC Mountain Double IPA'
p3144
asS'Grimm Lambo Door'
p3145
(lp3146
g83
aF15.9
aF16.1
aS'https://www.google.com/#q=Grimm Lambo Door'
p3147
asS'Bozeman Bozone HopZone IPA'
p3148
(lp3149
g163
aF14.3
aF14.3
aS'https://www.google.com/#q=Bozeman Bozone HopZone IPA'
p3150
asS'Dragoon Lazarus'
p3151
(lp3152
g267
aF18.2
aF18.3
aS'https://www.google.com/#q=Dragoon Lazarus'
p3153
asS'Nebraska Inception Series Runnin with the Devil'
p3154
(lp3155
g95
aF15.1
aF15.3
aS'https://www.google.com/#q=Nebraska Inception Series Runnin with the Devil'
p3156
asS'Revolution Deths Tar'
p3157
(lp3158
g274
aF15.7
aF15.9
aS'https://www.google.com/#q=Revolution Deths Tar'
p3159
asS'Fremont Abominable - Bourbon Barrel Coffee Cinnamon'
p3160
(lp3161
g231
aF16.7
aF16.9
aS'https://www.google.com/#q=Fremont Abominable - Bourbon Barrel Coffee Cinnamon'
p3162
asS'Creature Comforts Cosmik Debris'
p3163
(lp3164
g347
aF16.0
aF16.3
aS'https://www.google.com/#q=Creature Comforts Cosmik Debris'
p3165
asS'AleWerks Secret Admirer'
p3166
(lp3167
g379
aF16.0
aF16.0
aS'https://www.google.com/#q=AleWerks Secret Admirer'
p3168
asS'Three Notchd Biggie Smores Imperial Stout'
p3169
(lp3170
g379
aF16.1
aF15.9
aS'https://www.google.com/#q=Three Notchd Biggie Smores Imperial Stout'
p3171
asS'Nebraska Reserve Series Black Betty Russian Imperial Stout'
p3172
(lp3173
g95
aF15.6
aF15.8
aS'https://www.google.com/#q=Nebraska Reserve Series Black Betty Russian Imperial Stout'
p3174
asS'Dogfish Head 60 Minute IPA'
p3175
(lp3176
g366
aF15.1
aF15.5
aS'https://www.google.com/#q=Dogfish Head 60 Minute IPA'
p3177
asS'Founders Breakfast Stout'
p3178
(lp3179
g19
aF16.7
aF16.8
aS'https://www.google.com/#q=Founders Breakfast Stout'
p3180
asS'Great Raft Reasonably Corrupt Schwarzbier'
p3181
(lp3182
g91
aF14.8
aF15.1
aS'https://www.google.com/#q=Great Raft Reasonably Corrupt Schwarzbier'
p3183
asS'DC Brau Penn Quarter Porter'
p3184
(lp3185
g174
aF14.6
aF14.6
aS'https://www.google.com/#q=DC Brau Penn Quarter Porter'
p3186
asS'Diamond Bear Presidential IPA'
p3187
(lp3188
g37
aF12.7
aF12.7
aS'https://www.google.com/#q=Diamond Bear Presidential IPA'
p3189
asS'Holy Mountain Midnight Still - Coffee Vanilla'
p3190
(lp3191
g231
aF16.4
aF16.6
aS'https://www.google.com/#q=Holy Mountain Midnight Still - Coffee Vanilla'
p3192
asS'North Coast Old Rasputin (Bourbon Barrel)'
p3193
(lp3194
g15
aF16.5
aF16.7
aS'https://www.google.com/#q=North Coast Old Rasputin (Bourbon Barrel)'
p3195
asS'Deschutes Black Butte XXVIII'
p3196
(lp3197
g147
aF16.2
aF16.5
aS'https://www.google.com/#q=Deschutes Black Butte XXVIII'
p3198
asS'Barley Johns The Dark Knight (Returns)'
p3199
(lp3200
g87
aF16.6
aF16.8
aS'https://www.google.com/#q=Barley Johns The Dark Knight (Returns)'
p3201
asS'Montana Brewing Beartooth Espresso Porter'
p3202
(lp3203
g163
aF15.2
aF15.6
aS'https://www.google.com/#q=Montana Brewing Beartooth Espresso Porter'
p3204
asS'Liquid Bread Oatmeal Stout'
p3205
(lp3206
g53
aF14.4
aF14.6
aS'https://www.google.com/#q=Liquid Bread Oatmeal Stout'
p3207
asS'Maui Brewing Lorenzini Double IPA (6th Sense)'
p3208
(lp3209
g181
aF14.1
aF14.2
aS'https://www.google.com/#q=Maui Brewing Lorenzini Double IPA (6th Sense)'
p3210
asS'Anchorage A Deal With The Devil Barleywine'
p3211
(lp3212
g313
aF16.2
aF16.6
aS'https://www.google.com/#q=Anchorage A Deal With The Devil Barleywine'
p3213
asS'Funky Buddha Maple Bacon Coffee Porter'
p3214
(lp3215
g155
aF16.3
aF16.5
aS'https://www.google.com/#q=Funky Buddha Maple Bacon Coffee Porter'
p3216
asS'Santa Fe Imperial Java Stout'
p3217
(lp3218
g143
aF15.1
aF15.1
aS'https://www.google.com/#q=Santa Fe Imperial Java Stout'
p3219
asS'Avondale Vanillaphant Porter'
p3220
(lp3221
g306
aF14.4
aF14.3
aS'https://www.google.com/#q=Avondale Vanillaphant Porter'
p3222
asS'Terrapin Cinnamon Rolld Wake-n-Bake'
p3223
(lp3224
g347
aF15.6
aF15.8
aS'https://www.google.com/#q=Terrapin Cinnamon Rolld Wake-n-Bake'
p3225
asS'Wicked Weed White Angel'
p3226
(lp3227
g99
aF15.8
aF16.0
aS'https://www.google.com/#q=Wicked Weed White Angel'
p3228
asS'Midnight Sun Moscow'
p3229
(lp3230
g313
aF15.7
aF15.9
aS'https://www.google.com/#q=Midnight Sun Moscow'
p3231
asS'Proclamation Derivative Galaxy Hopped Pale Ale'
p3232
(lp3233
g106
aF15.7
aF16.0
aS'https://www.google.com/#q=Proclamation Derivative Galaxy Hopped Pale Ale'
p3234
asS'Funky Buddha Morning Wood'
p3235
(lp3236
g155
aF17.1
aF17.4
aS'https://www.google.com/#q=Funky Buddha Morning Wood'
p3237
asS'Three Floyds Behemoth'
p3238
(lp3239
g11
aF16.3
aF16.6
aS'https://www.google.com/#q=Three Floyds Behemoth'
p3240
asS'Free State Old Backus Barleywine'
p3241
(lp3242
g53
aF15.9
aF16.1
aS'https://www.google.com/#q=Free State Old Backus Barleywine'
p3243
asS'Laughing Sun Strawberry Wheat'
p3244
(lp3245
g114
aF12.6
aF12.6
aS'https://www.google.com/#q=Laughing Sun Strawberry Wheat'
p3246
asS'Bluegrass Cherry Inyouendo'
p3247
(lp3248
g23
aF15.6
aF15.8
aS'https://www.google.com/#q=Bluegrass Cherry Inyouendo'
p3249
asS'Tree House Good Morning'
p3250
(lp3251
g151
aF16.9
aF17.0
aS'https://www.google.com/#q=Tree House Good Morning'
p3252
asS'Toppling Goliath Light Speed Pale Ale'
p3253
(lp3254
g159
aF15.4
aF15.6
aS'https://www.google.com/#q=Toppling Goliath Light Speed Pale Ale'
p3255
asS'Toppling Goliath pseudoSue - Citra Double Dry Hopped'
p3256
(lp3257
g159
aF16.0
aF16.4
aS'https://www.google.com/#q=Toppling Goliath pseudoSue - Citra Double Dry Hopped'
p3258
asS'Iron Hill Sasquatch'
p3259
(lp3260
g366
aF15.0
aF15.0
aS'https://www.google.com/#q=Iron Hill Sasquatch'
p3261
asS'Big Island White Mountain Porter'
p3262
(lp3263
g181
aF14.1
aF14.1
aS'https://www.google.com/#q=Big Island White Mountain Porter'
p3264
asS'Tyranena BGW Whos Your Daddy? Bourbon Barrel-Aged Imperial Porter'
p3265
(lp3266
g57
aF16.2
aF16.5
aS'https://www.google.com/#q=Tyranena BGW Whos Your Daddy? Bourbon Barrel-Aged Imperial Porter'
p3267
asS'Sweetwater Dank Tank Johnny Hash'
p3268
(lp3269
g347
aF15.2
aF15.5
aS'https://www.google.com/#q=Sweetwater Dank Tank Johnny Hash'
p3270
asS'Voodoo The K13'
p3271
(lp3272
g3
aF16.5
aF16.8
aS'https://www.google.com/#q=Voodoo The K13'
p3273
asS'Bluejacket / Intangible Ales Gene Turns 10k'
p3274
(lp3275
g174
aF14.9
aF15.2
aS'https://www.google.com/#q=Bluejacket / Intangible Ales Gene Turns 10k'
p3276
asS'Cigar City Hunahpus Imperial Stout'
p3277
(lp3278
g155
aF17.2
aF17.3
aS'https://www.google.com/#q=Cigar City Hunahpus Imperial Stout'
p3279
asS'Iron Hill Imperial IPA'
p3280
(lp3281
g366
aF15.1
aF15.2
aS'https://www.google.com/#q=Iron Hill Imperial IPA'
p3282
asS'Beer Engineers Peanut Butter Porter'
p3283
(lp3284
g306
aF15.1
aF15.3
aS'https://www.google.com/#q=Beer Engineers Peanut Butter Porter'
p3285
asS'Southampton Imperial Russian Stout'
p3286
(lp3287
g83
aF16.5
aF16.7
aS'https://www.google.com/#q=Southampton Imperial Russian Stout'
p3288
asS'Hair of the Dog Doggie Claws (2003-)'
p3289
(lp3290
g147
aF16.0
aF16.3
aS'https://www.google.com/#q=Hair of the Dog Doggie Claws (2003-)'
p3291
asS'Southern Tier Imperial Oat'
p3292
(lp3293
g83
aF15.9
aF16.2
aS'https://www.google.com/#q=Southern Tier Imperial Oat'
p3294
asS'Allagash Nancy'
p3295
(lp3296
g448
aF15.6
aF16.0
aS'https://www.google.com/#q=Allagash Nancy'
p3297
asS'Abita Bourbon Street Baltic Porter'
p3298
(lp3299
g91
aF14.2
aF14.3
aS'https://www.google.com/#q=Abita Bourbon Street Baltic Porter'
p3300
asS'Altitude 7200 Stout'
p3301
(lp3302
g68
aF13.5
aF13.3
aS'https://www.google.com/#q=Altitude 7200 Stout'
p3303
asS'Allagash Golden Brett'
p3304
(lp3305
g448
aF15.6
aF15.9
aS'https://www.google.com/#q=Allagash Golden Brett'
p3306
asS'Medovina Sweet Melissa'
p3307
(lp3308
g49
aF16.1
aF16.5
aS'https://www.google.com/#q=Medovina Sweet Melissa'
p3309
asS'Braxton Dead Blow - Starter Coffee'
p3310
(lp3311
g23
aF15.4
aF15.8
aS'https://www.google.com/#q=Braxton Dead Blow - Starter Coffee'
p3312
asS'Bluejacket A Little Golden Gem'
p3313
(lp3314
g174
aF15.3
aF15.4
aS'https://www.google.com/#q=Bluejacket A Little Golden Gem'
p3315
asS'Terrapin French Toasted W-n-B Coffee Oatmeal Imperial Stout'
p3316
(lp3317
g347
aF15.4
aF15.6
aS'https://www.google.com/#q=Terrapin French Toasted W-n-B Coffee Oatmeal Imperial Stout'
p3318
asS'Russian River Pliny the Elder'
p3319
(lp3320
g15
aF17.2
aF17.4
aS'https://www.google.com/#q=Russian River Pliny the Elder'
p3321
asS'Sweetwater Tavern Barrel Aged High Desert Imperial Stout'
p3322
(lp3323
g379
aF16.1
aF16.2
aS'https://www.google.com/#q=Sweetwater Tavern Barrel Aged High Desert Imperial Stout'
p3324
asS'Pizza Boy Sunny Side Up - Double Coffee'
p3325
(lp3326
g3
aF16.2
aF16.5
aS'https://www.google.com/#q=Pizza Boy Sunny Side Up - Double Coffee'
p3327
asS'Dogfish Head Squall IPA'
p3328
(lp3329
g366
aF15.3
aF15.6
aS'https://www.google.com/#q=Dogfish Head Squall IPA'
p3330
asS'Pipeworks Citra Imperial IPA'
p3331
(lp3332
g274
aF16.1
aF16.3
aS'https://www.google.com/#q=Pipeworks Citra Imperial IPA'
p3333
asS'Three Floyds Arctic Panzer Wolf'
p3334
(lp3335
g11
aF15.8
aF16.1
aS'https://www.google.com/#q=Three Floyds Arctic Panzer Wolf'
p3336
asS'SPB Mississippi Fire Ant'
p3337
(lp3338
g290
aF13.6
aF13.6
aS'https://www.google.com/#q=SPB Mississippi Fire Ant'
p3339
asS'La Cumbre Acclimated IPA'
p3340
(lp3341
g143
aF17.3
aF17.6
aS'https://www.google.com/#q=La Cumbre Acclimated IPA'
p3342
asS'Bozeman Bozone Plum St. Porter'
p3343
(lp3344
g163
aF14.3
aF14.5
aS'https://www.google.com/#q=Bozeman Bozone Plum St. Porter'
p3345
asS'Dogfish Head Bitches Brew'
p3346
(lp3347
g366
aF15.7
aF15.9
aS'https://www.google.com/#q=Dogfish Head Bitches Brew'
p3348
asS'New Glarus Thumbprint Series IIPA'
p3349
(lp3350
g57
aF15.6
aF15.9
aS'https://www.google.com/#q=New Glarus Thumbprint Series IIPA'
p3351
asS'Hardywood Gingerbread Stout'
p3352
(lp3353
g379
aF15.5
aF15.6
aS'https://www.google.com/#q=Hardywood Gingerbread Stout'
p3354
asS'Allagash Coolship Cerise'
p3355
(lp3356
g448
aF15.6
aF16.0
aS'https://www.google.com/#q=Allagash Coolship Cerise'
p3357
asS'DC Brau Alpha Domina Mellis'
p3358
(lp3359
g174
aF15.1
aF15.1
aS'https://www.google.com/#q=DC Brau Alpha Domina Mellis'
p3360
asS'Allagash Tiarna'
p3361
(lp3362
g448
aF15.6
aF15.9
aS'https://www.google.com/#q=Allagash Tiarna'
p3363
asS'Legend Imperial IPA'
p3364
(lp3365
g379
aF15.1
aF15.3
aS'https://www.google.com/#q=Legend Imperial IPA'
p3366
asS'Tallgrass Vanilla Bean Buffalo Sweat - Bourbon Barrel & Cinnamon'
p3367
(lp3368
g53
aF14.6
aF15.0
aS'https://www.google.com/#q=Tallgrass Vanilla Bean Buffalo Sweat - Bourbon Barrel & Cinnamon'
p3369
asS'Payette 12 Gauge Imperial Stout'
p3370
(lp3371
g170
aF15.6
aF16.0
aS'https://www.google.com/#q=Payette 12 Gauge Imperial Stout'
p3372
asS'Jester King / Mikkeller Whiskey Barrel Rodeo'
p3373
(lp3374
g72
aF15.4
aF15.6
aS'https://www.google.com/#q=Jester King / Mikkeller Whiskey Barrel Rodeo'
p3375
asS'Bells Hopslam'
p3376
(lp3377
g19
aF16.9
aF17.2
aS'https://www.google.com/#q=Bells Hopslam'
p3378
asS'Three Floyds BrooDoo'
p3379
(lp3380
g11
aF15.7
aF16.0
aS'https://www.google.com/#q=Three Floyds BrooDoo'
p3381
asS'Ramstein Eis Storm Eisbock'
p3382
(lp3383
g398
aF15.2
aF15.5
aS'https://www.google.com/#q=Ramstein Eis Storm Eisbock'
p3384
asS'Kane A Night to End All Dawns - Cacao'
p3385
(lp3386
g398
aF16.0
aF16.4
aS'https://www.google.com/#q=Kane A Night to End All Dawns - Cacao'
p3387
asS'Sockeye Double Dagger IIPA (Fresh Hop)'
p3388
(lp3389
g170
aF15.3
aF15.9
aS'https://www.google.com/#q=Sockeye Double Dagger IIPA (Fresh Hop)'
p3390
asS'Stillwater / Mikkeller Rauchstar'
p3391
(lp3392
g417
aF15.2
aF15.2
aS'https://www.google.com/#q=Stillwater / Mikkeller Rauchstar'
p3393
asS'Vinos Rainbow Wheat'
p3394
(lp3395
g37
aF13.0
aF12.9
aS'https://www.google.com/#q=Vinos Rainbow Wheat'
p3396
asS'Three Floyds French Vanilla Militia'
p3397
(lp3398
g11
aF16.7
aF16.8
aS'https://www.google.com/#q=Three Floyds French Vanilla Militia'
p3399
asS'Country Boy 4th Anniversary Wild Red Ale'
p3400
(lp3401
g23
aF15.7
aF16.2
aS'https://www.google.com/#q=Country Boy 4th Anniversary Wild Red Ale'
p3402
asS'Jackie Os Bourbon Barrel Dark Apparition'
p3403
(lp3404
g260
aF16.0
aF16.2
aS'https://www.google.com/#q=Jackie Os Bourbon Barrel Dark Apparition'
p3405
asS'Silver City Le Fat'
p3406
(lp3407
g231
aF16.3
aF16.4
aS'https://www.google.com/#q=Silver City Le Fat'
p3408
asS'Epic Sour Brainless on Peaches'
p3409
(lp3410
g461
aF15.4
aF15.6
aS'https://www.google.com/#q=Epic Sour Brainless on Peaches'
p3411
asS'603 Granite Stout'
p3412
(lp3413
g241
aF15.7
aF15.3
aS'https://www.google.com/#q=603 Granite Stout'
p3414
asS'Hill Farmstead Works of Love (Sante Adairius - 2013)'
p3415
(lp3416
g188
aF16.6
aF17.0
aS'https://www.google.com/#q=Hill Farmstead Works of Love (Sante Adairius - 2013)'
p3417
asS'Stillwater Barrel Aged Series - Stateside Saison'
p3418
(lp3419
g417
aF15.6
aF15.8
aS'https://www.google.com/#q=Stillwater Barrel Aged Series - Stateside Saison'
p3420
asS'Heavy Seas Uncharted Waters: Blackbeards Breakfast'
p3421
(lp3422
g417
aF15.7
aF15.7
aS'https://www.google.com/#q=Heavy Seas Uncharted Waters: Blackbeards Breakfast'
p3423
asS'Captain Lawrence Rosso e Marrone'
p3424
(lp3425
g83
aF16.0
aF16.3
aS'https://www.google.com/#q=Captain Lawrence Rosso e Marrone'
p3426
asS'(512) Cascabel Cream Stout'
p3427
(lp3428
g72
aF15.5
aF15.8
aS'https://www.google.com/#q=(512) Cascabel Cream Stout'
p3429
asS'Pointe of View Winery Dry Apple Wine'
p3430
(lp3431
g114
aF10.6
aF10.2
aS'https://www.google.com/#q=Pointe of View Winery Dry Apple Wine'
p3432
asS'Wicked Weed Bramble Barrel'
p3433
(lp3434
g99
aF15.9
aF16.0
aS'https://www.google.com/#q=Wicked Weed Bramble Barrel'
p3435
asS'Blackstone Adam Bomb IPA'
p3436
(lp3437
g64
aF15.0
aF15.2
aS'https://www.google.com/#q=Blackstone Adam Bomb IPA'
p3438
asS'Bad Beat Hoppy Times IPA'
p3439
(lp3440
g27
aF14.6
aF15.2
aS'https://www.google.com/#q=Bad Beat Hoppy Times IPA'
p3441
asS'OEC Albus'
p3442
(lp3443
g45
aF15.8
aF16.1
aS'https://www.google.com/#q=OEC Albus'
p3444
asS'Hardywood Bourbon GBS (Gingerbread Stout)'
p3445
(lp3446
g379
aF15.5
aF15.7
aS'https://www.google.com/#q=Hardywood Bourbon GBS (Gingerbread Stout)'
p3447
asS'Bullfrog Le Roar Grrrz Plum'
p3448
(lp3449
g3
aF16.3
aF16.6
aS'https://www.google.com/#q=Bullfrog Le Roar Grrrz Plum'
p3450
asS'Sun Up White Russian Imperial Stout'
p3451
(lp3452
g267
aF16.8
aF17.1
aS'https://www.google.com/#q=Sun Up White Russian Imperial Stout'
p3453
asS'Side Project Saison du Fermier'
p3454
(lp3455
g7
aF15.9
aF16.2
aS'https://www.google.com/#q=Side Project Saison du Fermier'
p3456
asS'Epic Big Bad Baptista'
p3457
(lp3458
g461
aF17.6
aF17.9
aS'https://www.google.com/#q=Epic Big Bad Baptista'
p3459
asS'Trillium Headroom'
p3460
(lp3461
g151
aF16.7
aF17.0
aS'https://www.google.com/#q=Trillium Headroom'
p3462
asS'Trillium Mettle'
p3463
(lp3464
g151
aF16.3
aF16.5
aS'https://www.google.com/#q=Trillium Mettle'
p3465
asS'Kuhnhenn Fourth Dementia (4D) Old Ale - Bourbon Barrel'
p3466
(lp3467
g19
aF16.5
aF16.8
aS'https://www.google.com/#q=Kuhnhenn Fourth Dementia (4D) Old Ale - Bourbon Barrel'
p3468
asS'Trillium Melcher Street IPA'
p3469
(lp3470
g151
aF16.3
aF16.5
aS'https://www.google.com/#q=Trillium Melcher Street IPA'
p3471
asS'Stoneface Mozaccalypse'
p3472
(lp3473
g241
aF15.3
aF15.3
aS'https://www.google.com/#q=Stoneface Mozaccalypse'
p3474
asS'New Belgium Love - Felix-Oscar Blend - Blackberry Whiskey Barrel'
p3475
(lp3476
g49
aF16.2
aF16.4
aS'https://www.google.com/#q=New Belgium Love - Felix-Oscar Blend - Blackberry Whiskey Barrel'
p3477
asS'Bitter Root Single Hop Ale - CTZ'
p3478
(lp3479
g163
aF14.3
aF14.5
aS'https://www.google.com/#q=Bitter Root Single Hop Ale - CTZ'
p3480
asS'Cigar City Marshal Zhukovs Penultimate Push'
p3481
(lp3482
g155
aF17.3
aF17.5
aS'https://www.google.com/#q=Cigar City Marshal Zhukovs Penultimate Push'
p3483
asS'Stillwater Even Less Jesus (Remix)'
p3484
(lp3485
g417
aF15.2
aF15.4
aS'https://www.google.com/#q=Stillwater Even Less Jesus (Remix)'
p3486
asS'Crooked Stave Silly Cybies'
p3487
(lp3488
g49
aF16.0
aF16.2
aS'https://www.google.com/#q=Crooked Stave Silly Cybies'
p3489
asS'New Glarus Thumbprint Series Wild Sour Ale'
p3490
(lp3491
g57
aF15.6
aF16.0
aS'https://www.google.com/#q=New Glarus Thumbprint Series Wild Sour Ale'
p3492
asS'Prairie Funky Gold Mosaic'
p3493
(lp3494
g136
aF15.6
aF15.9
aS'https://www.google.com/#q=Prairie Funky Gold Mosaic'
p3495
asS'Melvin IPA'
p3496
(lp3497
g68
aF15.4
aF15.6
aS'https://www.google.com/#q=Melvin IPA'
p3498
asS'Firehouse Honey Rye Porter'
p3499
(lp3500
g110
aF14.1
aF14.1
aS'https://www.google.com/#q=Firehouse Honey Rye Porter'
p3501
asS'Superstition Aphrodisia Pyment - Cabernet'
p3502
(lp3503
g267
aF17.6
aF17.7
aS'https://www.google.com/#q=Superstition Aphrodisia Pyment - Cabernet'
p3504
asS'Jester King Nocturn Chrysalis - Gin Barrel Aged'
p3505
(lp3506
g72
aF16.6
aF16.9
aS'https://www.google.com/#q=Jester King Nocturn Chrysalis - Gin Barrel Aged'
p3507
asS'Carton Epitome'
p3508
(lp3509
g398
aF15.2
aF15.4
aS'https://www.google.com/#q=Carton Epitome'
p3510
asS'La Cumbre Cafe Con Leche'
p3511
(lp3512
g143
aF15.7
aF15.7
aS'https://www.google.com/#q=La Cumbre Cafe Con Leche'
p3513
asS'Allagash Century Ale'
p3514
(lp3515
g448
aF15.8
aF16.0
aS'https://www.google.com/#q=Allagash Century Ale'
p3516
asS'Country Boy Infinite Sadness'
p3517
(lp3518
g23
aF15.7
aF15.7
aS'https://www.google.com/#q=Country Boy Infinite Sadness'
p3519
asS'Flathead Lake The Imperial IPA'
p3520
(lp3521
g163
aF15.0
aF15.3
aS'https://www.google.com/#q=Flathead Lake The Imperial IPA'
p3522
asS'Southern Tier Oaked Pumking'
p3523
(lp3524
g83
aF16.1
aF16.4
aS'https://www.google.com/#q=Southern Tier Oaked Pumking'
p3525
asS'5 Seasons North Plan B IPA'
p3526
(lp3527
g347
aF15.4
aF15.8
aS'https://www.google.com/#q=5 Seasons North Plan B IPA'
p3528
asS'Brickway Vanilla Coffee Stout'
p3529
(lp3530
g95
aF14.9
aF14.6
aS'https://www.google.com/#q=Brickway Vanilla Coffee Stout'
p3531
asS'DC Brau / Oskar Blues Smells Like Freedom'
p3532
(lp3533
g174
aF15.3
aF15.4
aS'https://www.google.com/#q=DC Brau / Oskar Blues Smells Like Freedom'
p3534
asS'West Sixth Snakes In A Barrel'
p3535
(lp3536
g23
aF15.9
aF16.2
aS'https://www.google.com/#q=West Sixth Snakes In A Barrel'
p3537
asS'Tyranena BGW The Devil Made Me Do It'
p3538
(lp3539
g57
aF15.8
aF16.0
aS'https://www.google.com/#q=Tyranena BGW The Devil Made Me Do It'
p3540
asS'The Front Mountain Man Scotch Ale'
p3541
(lp3542
g163
aF14.9
aF15.4
aS'https://www.google.com/#q=The Front Mountain Man Scotch Ale'
p3543
asS'Straight To Ale Monkeynaut IPA'
p3544
(lp3545
g306
aF14.3
aF14.5
aS'https://www.google.com/#q=Straight To Ale Monkeynaut IPA'
p3546
asS'Samuel Adams Utopias'
p3547
(lp3548
g151
aF16.3
aF16.5
aS'https://www.google.com/#q=Samuel Adams Utopias'
p3549
asS'Moody Brews Half Seas Over Imperial IPA'
p3550
(lp3551
g37
aF16.2
aF16.4
aS'https://www.google.com/#q=Moody Brews Half Seas Over Imperial IPA'
p3552
asS'Anchorage Whiteout Wit Bier'
p3553
(lp3554
g313
aF15.0
aF15.3
aS'https://www.google.com/#q=Anchorage Whiteout Wit Bier'
p3555
asS'Firehouse Wilderness Wheat'
p3556
(lp3557
g110
aF11.1
aF11.4
aS'https://www.google.com/#q=Firehouse Wilderness Wheat'
p3558
asS'Boundary Bay Imperial IPA'
p3559
(lp3560
g231
aF15.2
aF15.4
aS'https://www.google.com/#q=Boundary Bay Imperial IPA'
p3561
asS'Deciduous Lambent'
p3562
(lp3563
g241
aF15.7
aF15.8
aS'https://www.google.com/#q=Deciduous Lambent'
p3564
asS'Kane Mexican Brunch'
p3565
(lp3566
g398
aF16.8
aF16.9
aS'https://www.google.com/#q=Kane Mexican Brunch'
p3567
asS'Blind Tiger Top Gun IPA'
p3568
(lp3569
g53
aF14.5
aF14.8
aS'https://www.google.com/#q=Blind Tiger Top Gun IPA'
p3570
asS'Deciduous Renascence'
p3571
(lp3572
g241
aF15.0
aF14.9
aS'https://www.google.com/#q=Deciduous Renascence'
p3573
asS'Bridge Brew Works Black Diamond Lager'
p3574
(lp3575
g41
aF13.3
aF13.5
aS'https://www.google.com/#q=Bridge Brew Works Black Diamond Lager'
p3576
asS'Flying Dog Gonzo Imperial Porter'
p3577
(lp3578
g417
aF15.6
aF15.8
aS'https://www.google.com/#q=Flying Dog Gonzo Imperial Porter'
p3579
asS'Firestone Walker Parabola'
p3580
(lp3581
g15
aF16.9
aF17.1
aS'https://www.google.com/#q=Firestone Walker Parabola'
p3582
asS'Lazy Magnolia Jefferson Stout'
p3583
(lp3584
g290
aF13.4
aF13.4
aS'https://www.google.com/#q=Lazy Magnolia Jefferson Stout'
p3585
asS'Goose Island Bourbon County Stout - Regal Rye Barrel'
p3586
(lp3587
g274
aF16.3
aF16.5
aS'https://www.google.com/#q=Goose Island Bourbon County Stout - Regal Rye Barrel'
p3588
asS'De Garde Cherry Raz Bu'
p3589
(lp3590
g147
aF16.2
aF16.5
aS'https://www.google.com/#q=De Garde Cherry Raz Bu'
p3591
asS'Evil Twin An Ms a Jess'
p3592
(lp3593
g83
aF16.2
aF16.4
aS'https://www.google.com/#q=Evil Twin An Ms a Jess'
p3594
asS'Library Rattlesnake Rye Pale Ale'
p3595
(lp3596
g68
aF13.5
aF13.3
aS'https://www.google.com/#q=Library Rattlesnake Rye Pale Ale'
p3597
asS'Allagash Tripel Reserve'
p3598
(lp3599
g448
aF15.5
aF15.8
aS'https://www.google.com/#q=Allagash Tripel Reserve'
p3600
asS'Prairie Berry Raspberry Honeywine'
p3601
(lp3602
g110
aF13.9
aF14.1
aS'https://www.google.com/#q=Prairie Berry Raspberry Honeywine'
p3603
asS'Dark Horse Bourbon Barrel Plead the 5th Imperial Stout'
p3604
(lp3605
g19
aF16.7
aF16.9
aS'https://www.google.com/#q=Dark Horse Bourbon Barrel Plead the 5th Imperial Stout'
p3606
asS'Tree House Alter Ego'
p3607
(lp3608
g151
aF16.7
aF17.0
aS'https://www.google.com/#q=Tree House Alter Ego'
p3609
asS'Red Brick 20th Anniversary'
p3610
(lp3611
g347
aF15.3
aF15.7
aS'https://www.google.com/#q=Red Brick 20th Anniversary'
p3612
asS'Kane A Night to End All Dawns'
p3613
(lp3614
g398
aF15.4
aF15.5
aS'https://www.google.com/#q=Kane A Night to End All Dawns'
p3615
asS'Pipeworks Crimson Snapper'
p3616
(lp3617
g274
aF16.1
aF16.3
aS'https://www.google.com/#q=Pipeworks Crimson Snapper'
p3618
asS'Tired Hands Pineal IPA'
p3619
(lp3620
g3
aF16.0
aF16.4
aS'https://www.google.com/#q=Tired Hands Pineal IPA'
p3621
asS'Bluejacket Lost Weekend'
p3622
(lp3623
g174
aF14.8
aF15.1
aS'https://www.google.com/#q=Bluejacket Lost Weekend'
p3624
asS'Creature Comforts See The Stars'
p3625
(lp3626
g347
aF16.8
aF16.8
aS'https://www.google.com/#q=Creature Comforts See The Stars'
p3627
asS'Fish Tale 10 Anniversary Ale'
p3628
(lp3629
g231
aF15.4
aF15.7
aS'https://www.google.com/#q=Fish Tale 10 Anniversary Ale'
p3630
asS'Chafunkta Old 504 Porter'
p3631
(lp3632
g91
aF15.1
aF15.4
aS'https://www.google.com/#q=Chafunkta Old 504 Porter'
p3633
asS'Superstition Super Bee'
p3634
(lp3635
g267
aF17.1
aF17.3
aS'https://www.google.com/#q=Superstition Super Bee'
p3636
asS'The Veil Crucial Taunt Double IPA'
p3637
(lp3638
g379
aF15.7
aF15.9
aS'https://www.google.com/#q=The Veil Crucial Taunt Double IPA'
p3639
asS'Snake River Le Serpent Cerise'
p3640
(lp3641
g68
aF15.1
aF15.6
aS'https://www.google.com/#q=Snake River Le Serpent Cerise'
p3642
asS'Bluejacket Wallflower'
p3643
(lp3644
g174
aF15.3
aF15.5
aS'https://www.google.com/#q=Bluejacket Wallflower'
p3645
asS'Smuttynose Baltic Porter'
p3646
(lp3647
g241
aF16.0
aF16.2
aS'https://www.google.com/#q=Smuttynose Baltic Porter'
p3648
asS'Blue Pants Weedys Double IPA'
p3649
(lp3650
g306
aF14.7
aF14.6
aS'https://www.google.com/#q=Blue Pants Weedys Double IPA'
p3651
asS'Superstition Grand Cru Berry'
p3652
(lp3653
g267
aF17.5
aF17.7
aS'https://www.google.com/#q=Superstition Grand Cru Berry'
p3654
asS'Bridge Brew Works Hellbender IPA'
p3655
(lp3656
g41
aF14.2
aF14.4
aS'https://www.google.com/#q=Bridge Brew Works Hellbender IPA'
p3657
asS'Bluejacket Mexican Radio (Whiskey Barrel Aged)'
p3658
(lp3659
g174
aF15.1
aF15.3
aS'https://www.google.com/#q=Bluejacket Mexican Radio (Whiskey Barrel Aged)'
p3660
asS'Core Easy Livin IPA'
p3661
(lp3662
g37
aF13.9
aF13.9
aS'https://www.google.com/#q=Core Easy Livin IPA'
p3663
asS'Bluejacket Further'
p3664
(lp3665
g174
aF15.5
aF15.4
aS'https://www.google.com/#q=Bluejacket Further'
p3666
asS'Hoppin Frog BORIS Batch #200'
p3667
(lp3668
g260
aF16.3
aF16.3
aS'https://www.google.com/#q=Hoppin Frog BORIS Batch #200'
p3669
asS'Prairie Prairie Noir'
p3670
(lp3671
g136
aF15.4
aF15.5
aS'https://www.google.com/#q=Prairie Prairie Noir'
p3672
asS'Terrapin Substance Abuse Ale'
p3673
(lp3674
g347
aF16.3
aF16.7
aS'https://www.google.com/#q=Terrapin Substance Abuse Ale'
p3675
asS'Bluejacket / Intangible Ales Travlrs 12k'
p3676
(lp3677
g174
aF14.7
aF14.9
aS'https://www.google.com/#q=Bluejacket / Intangible Ales Travlrs 12k'
p3678
asS'Other Half Mosaic'
p3679
(lp3680
g83
aF16.3
aF16.5
aS'https://www.google.com/#q=Other Half Mosaic'
p3681
asS'Dangerous Man Peanut Butter Porter'
p3682
(lp3683
g87
aF16.3
aF16.4
aS'https://www.google.com/#q=Dangerous Man Peanut Butter Porter'
p3684
asS'Dogfish Head Palo Santo Marron'
p3685
(lp3686
g366
aF15.6
aF15.9
aS'https://www.google.com/#q=Dogfish Head Palo Santo Marron'
p3687
asS'Tallgrass 16-Bit DPA'
p3688
(lp3689
g53
aF14.4
aF14.7
aS'https://www.google.com/#q=Tallgrass 16-Bit DPA'
p3690
asS'La Cumbre El Negro RIS'
p3691
(lp3692
g143
aF15.8
aF16.0
aS'https://www.google.com/#q=La Cumbre El Negro RIS'
p3693
asS'Stillwater G13'
p3694
(lp3695
g417
aF15.5
aF15.6
aS'https://www.google.com/#q=Stillwater G13'
p3696
asS'Hardywood Foolery'
p3697
(lp3698
g379
aF16.3
aF16.7
aS'https://www.google.com/#q=Hardywood Foolery'
p3699
asS'Straight To Ale Unobtanium'
p3700
(lp3701
g306
aF14.8
aF15.1
aS'https://www.google.com/#q=Straight To Ale Unobtanium'
p3702
asS'Melvin Brosaic'
p3703
(lp3704
g68
aF15.9
aF15.8
aS'https://www.google.com/#q=Melvin Brosaic'
p3705
asS'Great Raft All My Tomorrows'
p3706
(lp3707
g91
aF14.6
aF15.1
aS'https://www.google.com/#q=Great Raft All My Tomorrows'
p3708
asS'Tree House Juice Machine (2015- )'
p3709
(lp3710
g151
aF16.8
aF17.2
aS'https://www.google.com/#q=Tree House Juice Machine (2015- )'
p3711
asS'Big Timber IPA'
p3712
(lp3713
g41
aF13.2
aF13.6
aS'https://www.google.com/#q=Big Timber IPA'
p3714
asS'Maple River Winery Country Crabapple Wine'
p3715
(lp3716
g114
aF10.5
aF10.4
aS'https://www.google.com/#q=Maple River Winery Country Crabapple Wine'
p3717
asS'Bluejacket P.X. Sherry Barrel-Aged High Society 2016'
p3718
(lp3719
g174
aF15.6
aF16.0
aS'https://www.google.com/#q=Bluejacket P.X. Sherry Barrel-Aged High Society 2016'
p3720
asS'Anchorage Darkest Hour Imperial Stout (2014-)'
p3721
(lp3722
g313
aF16.2
aF16.4
aS'https://www.google.com/#q=Anchorage Darkest Hour Imperial Stout (2014-)'
p3723
asS'Jackie Os Vanilla & Coffee Bean Bourbon Barrel Dark Apparition'
p3724
(lp3725
g260
aF16.6
aF16.7
aS'https://www.google.com/#q=Jackie Os Vanilla & Coffee Bean Bourbon Barrel Dark Apparition'
p3726
asS'Wicked Weed Freak Of Nature Double IPA'
p3727
(lp3728
g99
aF15.7
aF15.9
aS'https://www.google.com/#q=Wicked Weed Freak Of Nature Double IPA'
p3729
asS'Big Sky Rye Pale Ale'
p3730
(lp3731
g163
aF14.4
aF14.7
aS'https://www.google.com/#q=Big Sky Rye Pale Ale'
p3732
asS'Burnt Hickory Charred Walls of the Damned'
p3733
(lp3734
g347
aF16.0
aF16.5
aS'https://www.google.com/#q=Burnt Hickory Charred Walls of the Damned'
p3735
asS'Two Roads Igors Dream - Rye Whiskey Barrel Aged'
p3736
(lp3737
g45
aF15.2
aF15.4
aS'https://www.google.com/#q=Two Roads Igors Dream - Rye Whiskey Barrel Aged'
p3738
asS'Straight To Ale Monkeys Uncle IIPA'
p3739
(lp3740
g306
aF15.0
aF15.3
aS'https://www.google.com/#q=Straight To Ale Monkeys Uncle IIPA'
p3741
asS'Wiseacre Adjective Animal'
p3742
(lp3743
g64
aF14.7
aF15.0
aS'https://www.google.com/#q=Wiseacre Adjective Animal'
p3744
asS'Thirsty Dog Siberian Night Imperial Stout'
p3745
(lp3746
g260
aF16.4
aF16.6
aS'https://www.google.com/#q=Thirsty Dog Siberian Night Imperial Stout'
p3747
asS'Barbarian Big Bad Funky Wolf'
p3748
(lp3749
g170
aF15.3
aF15.8
aS'https://www.google.com/#q=Barbarian Big Bad Funky Wolf'
p3750
asS'Thunder Canyon Warhead Stout'
p3751
(lp3752
g267
aF15.9
aF16.2
aS'https://www.google.com/#q=Thunder Canyon Warhead Stout'
p3753
asS'Lickinghole Creek Coconut Quadrupel Ale'
p3754
(lp3755
g379
aF16.3
aF16.4
aS'https://www.google.com/#q=Lickinghole Creek Coconut Quadrupel Ale'
p3756
asS'Lakewood French Quarter Temptress'
p3757
(lp3758
g72
aF16.0
aF16.0
aS'https://www.google.com/#q=Lakewood French Quarter Temptress'
p3759
asS'Forest & Main Paradisaea'
p3760
(lp3761
g3
aF16.1
aF16.2
aS'https://www.google.com/#q=Forest & Main Paradisaea'
p3762
asS'Trillium Fort Point Pale Ale - Double Dry Hopped'
p3763
(lp3764
g151
aF16.4
aF16.7
aS'https://www.google.com/#q=Trillium Fort Point Pale Ale - Double Dry Hopped'
p3765
asS'Avery Uncle Jacobs Stout'
p3766
(lp3767
g49
aF16.5
aF16.6
aS'https://www.google.com/#q=Avery Uncle Jacobs Stout'
p3768
asS'The Livery Bourbon Barrel Aged Wheat Trippelbock'
p3769
(lp3770
g19
aF16.4
aF16.8
aS'https://www.google.com/#q=The Livery Bourbon Barrel Aged Wheat Trippelbock'
p3771
asS'Dogfish Head Immort Ale'
p3772
(lp3773
g366
aF15.1
aF15.5
aS'https://www.google.com/#q=Dogfish Head Immort Ale'
p3774
asS'Woodland Empire Cozy Up Big Ol Milk Stout'
p3775
(lp3776
g170
aF15.1
aF15.4
aS'https://www.google.com/#q=Woodland Empire Cozy Up Big Ol Milk Stout'
p3777
asS'Kauai Island Captain Cooks IPA'
p3778
(lp3779
g181
aF14.7
aF15.0
aS'https://www.google.com/#q=Kauai Island Captain Cooks IPA'
p3780
asS'Westbrook Mexican Cake Imperial Stout - Bourbon Coconut'
p3781
(lp3782
g76
aF17.0
aF17.1
aS'https://www.google.com/#q=Westbrook Mexican Cake Imperial Stout - Bourbon Coconut'
p3783
asS'Dogfish Head World Wide Stout 2001/2003-Present (18%)'
p3784
(lp3785
g366
aF16.4
aF16.7
aS'https://www.google.com/#q=Dogfish Head World Wide Stout 2001/2003-Present (18%)'
p3786
asS'Carton Dune Fruit'
p3787
(lp3788
g398
aF15.7
aF16.1
aS'https://www.google.com/#q=Carton Dune Fruit'
p3789
asS'1809 Berliner Style Weisse Zymatore - Gin & Pinot Noir Barrels'
p3790
(lp3791
g45
aF15.4
aF15.3
aS'https://www.google.com/#q=1809 Berliner Style Weisse Zymatore - Gin & Pinot Noir Barrels'
p3792
asS'Marble Reserve Ale'
p3793
(lp3794
g143
aF15.0
aF15.2
aS'https://www.google.com/#q=Marble Reserve Ale'
p3795
asS'Chama River Anastasia Wine Barrel Aged Russian Imperial Stout'
p3796
(lp3797
g143
aF15.8
aF16.0
aS'https://www.google.com/#q=Chama River Anastasia Wine Barrel Aged Russian Imperial Stout'
p3798
asS'Bent Paddle Double Shot Double Black'
p3799
(lp3800
g87
aF16.2
aF16.3
aS'https://www.google.com/#q=Bent Paddle Double Shot Double Black'
p3801
asS'Blackberry Farm Barrel Series - Brett Saison'
p3802
(lp3803
g64
aF15.3
aF15.7
aS'https://www.google.com/#q=Blackberry Farm Barrel Series - Brett Saison'
p3804
asS'Tree House In Perpetuity'
p3805
(lp3806
g151
aF16.6
aF16.7
aS'https://www.google.com/#q=Tree House In Perpetuity'
p3807
asS'Bridge Brew Works Momma Rye IPA'
p3808
(lp3809
g41
aF13.7
aF13.8
aS'https://www.google.com/#q=Bridge Brew Works Momma Rye IPA'
p3810
asS'Town Hall Czar Jack Imperial Stout'
p3811
(lp3812
g87
aF16.2
aF16.4
aS'https://www.google.com/#q=Town Hall Czar Jack Imperial Stout'
p3813
asS'Terrapin Oaked Wake-n-Bake Coffee Oatmeal Imperial Stout'
p3814
(lp3815
g347
aF15.9
aF16.0
aS'https://www.google.com/#q=Terrapin Oaked Wake-n-Bake Coffee Oatmeal Imperial Stout'
p3816
asS'Nebraska Apricot Au Poivre Saison'
p3817
(lp3818
g95
aF15.1
aF15.4
aS'https://www.google.com/#q=Nebraska Apricot Au Poivre Saison'
p3819
asS'Anchorage Bitter Monk Belgian Style Double IPA'
p3820
(lp3821
g313
aF16.0
aF16.3
aS'https://www.google.com/#q=Anchorage Bitter Monk Belgian Style Double IPA'
p3822
asS'Terrapin Tiramisu-Hoo'
p3823
(lp3824
g347
aF15.3
aF15.6
aS'https://www.google.com/#q=Terrapin Tiramisu-Hoo'
p3825
asS'Sick N Twisted Hop On Top IPA'
p3826
(lp3827
g110
aF13.2
aF12.6
aS'https://www.google.com/#q=Sick N Twisted Hop On Top IPA'
p3828
asS'Leinenkugels Big Eddy Russian Imperial Stout'
p3829
(lp3830
g57
aF15.6
aF15.7
aS'https://www.google.com/#q=Leinenkugels Big Eddy Russian Imperial Stout'
p3831
asS'Blind Tiger Russian Imperial Stout'
p3832
(lp3833
g53
aF14.8
aF15.5
aS'https://www.google.com/#q=Blind Tiger Russian Imperial Stout'
p3834
asS'Bluejacket Mexican Radio'
p3835
(lp3836
g174
aF15.0
aF15.1
aS'https://www.google.com/#q=Bluejacket Mexican Radio'
p3837
asS'Maui Brewing Hop Kine'
p3838
(lp3839
g181
aF14.1
aF14.1
aS'https://www.google.com/#q=Maui Brewing Hop Kine'
p3840
asS'AleSmith Speedway Stout - Vanilla & Coconut'
p3841
(lp3842
g15
aF16.7
aF16.8
aS'https://www.google.com/#q=AleSmith Speedway Stout - Vanilla & Coconut'
p3843
asS'Voodoo Grande Negro Voodoo Papi (Lairds Apple Brandy)'
p3844
(lp3845
g3
aF16.5
aF16.9
aS'https://www.google.com/#q=Voodoo Grande Negro Voodoo Papi (Lairds Apple Brandy)'
p3846
asS'Defiance Fuzzy Knuckles'
p3847
(lp3848
g53
aF15.0
aF14.7
aS'https://www.google.com/#q=Defiance Fuzzy Knuckles'
p3849
asS'Toppling Goliath Mosaic Dry Hopped pseudoSue'
p3850
(lp3851
g159
aF16.2
aF16.3
aS'https://www.google.com/#q=Toppling Goliath Mosaic Dry Hopped pseudoSue'
p3852
asS'Vinos Holidaze'
p3853
(lp3854
g37
aF13.1
aF13.2
aS'https://www.google.com/#q=Vinos Holidaze'
p3855
asS'Allagash Avanc'
p3856
(lp3857
g448
aF15.8
aF16.1
aS'https://www.google.com/#q=Allagash Avanc'
p3858
as.